
ST7735_Driver_L432KC.elf:     file format elf32-littlearm

Sections:
Idx Name          Size      VMA       LMA       File off  Algn
  0 .isr_vector   0000018c  08000000  08000000  00001000  2**0
                  CONTENTS, ALLOC, LOAD, READONLY, DATA
  1 .text         000042f4  08000190  08000190  00001190  2**3
                  CONTENTS, ALLOC, LOAD, READONLY, CODE
  2 .rodata       00000090  08004488  08004488  00005488  2**3
                  CONTENTS, ALLOC, LOAD, READONLY, DATA
  3 .ARM.extab    00000000  08004518  08004518  00012910  2**0
                  CONTENTS
  4 .ARM          00000000  08004518  08004518  00012910  2**0
                  CONTENTS
  5 .preinit_array 00000000  08004518  08004518  00012910  2**0
                  CONTENTS, ALLOC, LOAD, DATA
  6 .init_array   00000004  08004518  08004518  00005518  2**2
                  CONTENTS, ALLOC, LOAD, READONLY, DATA
  7 .fini_array   00000004  0800451c  0800451c  0000551c  2**2
                  CONTENTS, ALLOC, LOAD, READONLY, DATA
  8 .data         0000c910  20000000  08004520  00006000  2**3
                  CONTENTS, ALLOC, LOAD, DATA
  9 .bss          000001c0  2000c910  08010e30  00012910  2**2
                  ALLOC
 10 ._user_heap_stack 00000600  2000cad0  08010e30  00012ad0  2**0
                  ALLOC
 11 .ARM.attributes 00000030  00000000  00000000  00012910  2**0
                  CONTENTS, READONLY
 12 .debug_info   0000a262  00000000  00000000  00012940  2**0
                  CONTENTS, READONLY, DEBUGGING, OCTETS
 13 .debug_abbrev 000018bd  00000000  00000000  0001cba2  2**0
                  CONTENTS, READONLY, DEBUGGING, OCTETS
 14 .debug_aranges 000007e8  00000000  00000000  0001e460  2**3
                  CONTENTS, READONLY, DEBUGGING, OCTETS
 15 .debug_rnglists 000005e8  00000000  00000000  0001ec48  2**0
                  CONTENTS, READONLY, DEBUGGING, OCTETS
 16 .debug_macro  00021c6b  00000000  00000000  0001f230  2**0
                  CONTENTS, READONLY, DEBUGGING, OCTETS
 17 .debug_line   000097d8  00000000  00000000  00040e9b  2**0
                  CONTENTS, READONLY, DEBUGGING, OCTETS
 18 .debug_str    000bee9c  00000000  00000000  0004a673  2**0
                  CONTENTS, READONLY, DEBUGGING, OCTETS
 19 .comment      00000043  00000000  00000000  0010950f  2**0
                  CONTENTS, READONLY
 20 .debug_frame  00002560  00000000  00000000  00109554  2**2
                  CONTENTS, READONLY, DEBUGGING, OCTETS
 21 .debug_line_str 00000056  00000000  00000000  0010bab4  2**0
                  CONTENTS, READONLY, DEBUGGING, OCTETS

Disassembly of section .text:

08000190 <__do_global_dtors_aux>:
 8000190:	b510      	push	{r4, lr}
 8000192:	4c05      	ldr	r4, [pc, #20]	@ (80001a8 <__do_global_dtors_aux+0x18>)
 8000194:	7823      	ldrb	r3, [r4, #0]
 8000196:	b933      	cbnz	r3, 80001a6 <__do_global_dtors_aux+0x16>
 8000198:	4b04      	ldr	r3, [pc, #16]	@ (80001ac <__do_global_dtors_aux+0x1c>)
 800019a:	b113      	cbz	r3, 80001a2 <__do_global_dtors_aux+0x12>
 800019c:	4804      	ldr	r0, [pc, #16]	@ (80001b0 <__do_global_dtors_aux+0x20>)
 800019e:	f3af 8000 	nop.w
 80001a2:	2301      	movs	r3, #1
 80001a4:	7023      	strb	r3, [r4, #0]
 80001a6:	bd10      	pop	{r4, pc}
 80001a8:	2000c910 	.word	0x2000c910
 80001ac:	00000000 	.word	0x00000000
 80001b0:	0800446c 	.word	0x0800446c

080001b4 <frame_dummy>:
 80001b4:	b508      	push	{r3, lr}
 80001b6:	4b03      	ldr	r3, [pc, #12]	@ (80001c4 <frame_dummy+0x10>)
 80001b8:	b11b      	cbz	r3, 80001c2 <frame_dummy+0xe>
 80001ba:	4903      	ldr	r1, [pc, #12]	@ (80001c8 <frame_dummy+0x14>)
 80001bc:	4803      	ldr	r0, [pc, #12]	@ (80001cc <frame_dummy+0x18>)
 80001be:	f3af 8000 	nop.w
 80001c2:	bd08      	pop	{r3, pc}
 80001c4:	00000000 	.word	0x00000000
 80001c8:	2000c914 	.word	0x2000c914
 80001cc:	0800446c 	.word	0x0800446c

080001d0 <__aeabi_drsub>:
 80001d0:	f081 4100 	eor.w	r1, r1, #2147483648	@ 0x80000000
 80001d4:	e002      	b.n	80001dc <__adddf3>
 80001d6:	bf00      	nop

080001d8 <__aeabi_dsub>:
 80001d8:	f083 4300 	eor.w	r3, r3, #2147483648	@ 0x80000000

080001dc <__adddf3>:
 80001dc:	b530      	push	{r4, r5, lr}
 80001de:	ea4f 0441 	mov.w	r4, r1, lsl #1
 80001e2:	ea4f 0543 	mov.w	r5, r3, lsl #1
 80001e6:	ea94 0f05 	teq	r4, r5
 80001ea:	bf08      	it	eq
 80001ec:	ea90 0f02 	teqeq	r0, r2
 80001f0:	bf1f      	itttt	ne
 80001f2:	ea54 0c00 	orrsne.w	ip, r4, r0
 80001f6:	ea55 0c02 	orrsne.w	ip, r5, r2
 80001fa:	ea7f 5c64 	mvnsne.w	ip, r4, asr #21
 80001fe:	ea7f 5c65 	mvnsne.w	ip, r5, asr #21
 8000202:	f000 80e2 	beq.w	80003ca <__adddf3+0x1ee>
 8000206:	ea4f 5454 	mov.w	r4, r4, lsr #21
 800020a:	ebd4 5555 	rsbs	r5, r4, r5, lsr #21
 800020e:	bfb8      	it	lt
 8000210:	426d      	neglt	r5, r5
 8000212:	dd0c      	ble.n	800022e <__adddf3+0x52>
 8000214:	442c      	add	r4, r5
 8000216:	ea80 0202 	eor.w	r2, r0, r2
 800021a:	ea81 0303 	eor.w	r3, r1, r3
 800021e:	ea82 0000 	eor.w	r0, r2, r0
 8000222:	ea83 0101 	eor.w	r1, r3, r1
 8000226:	ea80 0202 	eor.w	r2, r0, r2
 800022a:	ea81 0303 	eor.w	r3, r1, r3
 800022e:	2d36      	cmp	r5, #54	@ 0x36
 8000230:	bf88      	it	hi
 8000232:	bd30      	pophi	{r4, r5, pc}
 8000234:	f011 4f00 	tst.w	r1, #2147483648	@ 0x80000000
 8000238:	ea4f 3101 	mov.w	r1, r1, lsl #12
 800023c:	f44f 1c80 	mov.w	ip, #1048576	@ 0x100000
 8000240:	ea4c 3111 	orr.w	r1, ip, r1, lsr #12
 8000244:	d002      	beq.n	800024c <__adddf3+0x70>
 8000246:	4240      	negs	r0, r0
 8000248:	eb61 0141 	sbc.w	r1, r1, r1, lsl #1
 800024c:	f013 4f00 	tst.w	r3, #2147483648	@ 0x80000000
 8000250:	ea4f 3303 	mov.w	r3, r3, lsl #12
 8000254:	ea4c 3313 	orr.w	r3, ip, r3, lsr #12
 8000258:	d002      	beq.n	8000260 <__adddf3+0x84>
 800025a:	4252      	negs	r2, r2
 800025c:	eb63 0343 	sbc.w	r3, r3, r3, lsl #1
 8000260:	ea94 0f05 	teq	r4, r5
 8000264:	f000 80a7 	beq.w	80003b6 <__adddf3+0x1da>
 8000268:	f1a4 0401 	sub.w	r4, r4, #1
 800026c:	f1d5 0e20 	rsbs	lr, r5, #32
 8000270:	db0d      	blt.n	800028e <__adddf3+0xb2>
 8000272:	fa02 fc0e 	lsl.w	ip, r2, lr
 8000276:	fa22 f205 	lsr.w	r2, r2, r5
 800027a:	1880      	adds	r0, r0, r2
 800027c:	f141 0100 	adc.w	r1, r1, #0
 8000280:	fa03 f20e 	lsl.w	r2, r3, lr
 8000284:	1880      	adds	r0, r0, r2
 8000286:	fa43 f305 	asr.w	r3, r3, r5
 800028a:	4159      	adcs	r1, r3
 800028c:	e00e      	b.n	80002ac <__adddf3+0xd0>
 800028e:	f1a5 0520 	sub.w	r5, r5, #32
 8000292:	f10e 0e20 	add.w	lr, lr, #32
 8000296:	2a01      	cmp	r2, #1
 8000298:	fa03 fc0e 	lsl.w	ip, r3, lr
 800029c:	bf28      	it	cs
 800029e:	f04c 0c02 	orrcs.w	ip, ip, #2
 80002a2:	fa43 f305 	asr.w	r3, r3, r5
 80002a6:	18c0      	adds	r0, r0, r3
 80002a8:	eb51 71e3 	adcs.w	r1, r1, r3, asr #31
 80002ac:	f001 4500 	and.w	r5, r1, #2147483648	@ 0x80000000
 80002b0:	d507      	bpl.n	80002c2 <__adddf3+0xe6>
 80002b2:	f04f 0e00 	mov.w	lr, #0
 80002b6:	f1dc 0c00 	rsbs	ip, ip, #0
 80002ba:	eb7e 0000 	sbcs.w	r0, lr, r0
 80002be:	eb6e 0101 	sbc.w	r1, lr, r1
 80002c2:	f5b1 1f80 	cmp.w	r1, #1048576	@ 0x100000
 80002c6:	d31b      	bcc.n	8000300 <__adddf3+0x124>
 80002c8:	f5b1 1f00 	cmp.w	r1, #2097152	@ 0x200000
 80002cc:	d30c      	bcc.n	80002e8 <__adddf3+0x10c>
 80002ce:	0849      	lsrs	r1, r1, #1
 80002d0:	ea5f 0030 	movs.w	r0, r0, rrx
 80002d4:	ea4f 0c3c 	mov.w	ip, ip, rrx
 80002d8:	f104 0401 	add.w	r4, r4, #1
 80002dc:	ea4f 5244 	mov.w	r2, r4, lsl #21
 80002e0:	f512 0f80 	cmn.w	r2, #4194304	@ 0x400000
 80002e4:	f080 809a 	bcs.w	800041c <__adddf3+0x240>
 80002e8:	f1bc 4f00 	cmp.w	ip, #2147483648	@ 0x80000000
 80002ec:	bf08      	it	eq
 80002ee:	ea5f 0c50 	movseq.w	ip, r0, lsr #1
 80002f2:	f150 0000 	adcs.w	r0, r0, #0
 80002f6:	eb41 5104 	adc.w	r1, r1, r4, lsl #20
 80002fa:	ea41 0105 	orr.w	r1, r1, r5
 80002fe:	bd30      	pop	{r4, r5, pc}
 8000300:	ea5f 0c4c 	movs.w	ip, ip, lsl #1
 8000304:	4140      	adcs	r0, r0
 8000306:	eb41 0101 	adc.w	r1, r1, r1
 800030a:	3c01      	subs	r4, #1
 800030c:	bf28      	it	cs
 800030e:	f5b1 1f80 	cmpcs.w	r1, #1048576	@ 0x100000
 8000312:	d2e9      	bcs.n	80002e8 <__adddf3+0x10c>
 8000314:	f091 0f00 	teq	r1, #0
 8000318:	bf04      	itt	eq
 800031a:	4601      	moveq	r1, r0
 800031c:	2000      	moveq	r0, #0
 800031e:	fab1 f381 	clz	r3, r1
 8000322:	bf08      	it	eq
 8000324:	3320      	addeq	r3, #32
 8000326:	f1a3 030b 	sub.w	r3, r3, #11
 800032a:	f1b3 0220 	subs.w	r2, r3, #32
 800032e:	da0c      	bge.n	800034a <__adddf3+0x16e>
 8000330:	320c      	adds	r2, #12
 8000332:	dd08      	ble.n	8000346 <__adddf3+0x16a>
 8000334:	f102 0c14 	add.w	ip, r2, #20
 8000338:	f1c2 020c 	rsb	r2, r2, #12
 800033c:	fa01 f00c 	lsl.w	r0, r1, ip
 8000340:	fa21 f102 	lsr.w	r1, r1, r2
 8000344:	e00c      	b.n	8000360 <__adddf3+0x184>
 8000346:	f102 0214 	add.w	r2, r2, #20
 800034a:	bfd8      	it	le
 800034c:	f1c2 0c20 	rsble	ip, r2, #32
 8000350:	fa01 f102 	lsl.w	r1, r1, r2
 8000354:	fa20 fc0c 	lsr.w	ip, r0, ip
 8000358:	bfdc      	itt	le
 800035a:	ea41 010c 	orrle.w	r1, r1, ip
 800035e:	4090      	lslle	r0, r2
 8000360:	1ae4      	subs	r4, r4, r3
 8000362:	bfa2      	ittt	ge
 8000364:	eb01 5104 	addge.w	r1, r1, r4, lsl #20
 8000368:	4329      	orrge	r1, r5
 800036a:	bd30      	popge	{r4, r5, pc}
 800036c:	ea6f 0404 	mvn.w	r4, r4
 8000370:	3c1f      	subs	r4, #31
 8000372:	da1c      	bge.n	80003ae <__adddf3+0x1d2>
 8000374:	340c      	adds	r4, #12
 8000376:	dc0e      	bgt.n	8000396 <__adddf3+0x1ba>
 8000378:	f104 0414 	add.w	r4, r4, #20
 800037c:	f1c4 0220 	rsb	r2, r4, #32
 8000380:	fa20 f004 	lsr.w	r0, r0, r4
 8000384:	fa01 f302 	lsl.w	r3, r1, r2
 8000388:	ea40 0003 	orr.w	r0, r0, r3
 800038c:	fa21 f304 	lsr.w	r3, r1, r4
 8000390:	ea45 0103 	orr.w	r1, r5, r3
 8000394:	bd30      	pop	{r4, r5, pc}
 8000396:	f1c4 040c 	rsb	r4, r4, #12
 800039a:	f1c4 0220 	rsb	r2, r4, #32
 800039e:	fa20 f002 	lsr.w	r0, r0, r2
 80003a2:	fa01 f304 	lsl.w	r3, r1, r4
 80003a6:	ea40 0003 	orr.w	r0, r0, r3
 80003aa:	4629      	mov	r1, r5
 80003ac:	bd30      	pop	{r4, r5, pc}
 80003ae:	fa21 f004 	lsr.w	r0, r1, r4
 80003b2:	4629      	mov	r1, r5
 80003b4:	bd30      	pop	{r4, r5, pc}
 80003b6:	f094 0f00 	teq	r4, #0
 80003ba:	f483 1380 	eor.w	r3, r3, #1048576	@ 0x100000
 80003be:	bf06      	itte	eq
 80003c0:	f481 1180 	eoreq.w	r1, r1, #1048576	@ 0x100000
 80003c4:	3401      	addeq	r4, #1
 80003c6:	3d01      	subne	r5, #1
 80003c8:	e74e      	b.n	8000268 <__adddf3+0x8c>
 80003ca:	ea7f 5c64 	mvns.w	ip, r4, asr #21
 80003ce:	bf18      	it	ne
 80003d0:	ea7f 5c65 	mvnsne.w	ip, r5, asr #21
 80003d4:	d029      	beq.n	800042a <__adddf3+0x24e>
 80003d6:	ea94 0f05 	teq	r4, r5
 80003da:	bf08      	it	eq
 80003dc:	ea90 0f02 	teqeq	r0, r2
 80003e0:	d005      	beq.n	80003ee <__adddf3+0x212>
 80003e2:	ea54 0c00 	orrs.w	ip, r4, r0
 80003e6:	bf04      	itt	eq
 80003e8:	4619      	moveq	r1, r3
 80003ea:	4610      	moveq	r0, r2
 80003ec:	bd30      	pop	{r4, r5, pc}
 80003ee:	ea91 0f03 	teq	r1, r3
 80003f2:	bf1e      	ittt	ne
 80003f4:	2100      	movne	r1, #0
 80003f6:	2000      	movne	r0, #0
 80003f8:	bd30      	popne	{r4, r5, pc}
 80003fa:	ea5f 5c54 	movs.w	ip, r4, lsr #21
 80003fe:	d105      	bne.n	800040c <__adddf3+0x230>
 8000400:	0040      	lsls	r0, r0, #1
 8000402:	4149      	adcs	r1, r1
 8000404:	bf28      	it	cs
 8000406:	f041 4100 	orrcs.w	r1, r1, #2147483648	@ 0x80000000
 800040a:	bd30      	pop	{r4, r5, pc}
 800040c:	f514 0480 	adds.w	r4, r4, #4194304	@ 0x400000
 8000410:	bf3c      	itt	cc
 8000412:	f501 1180 	addcc.w	r1, r1, #1048576	@ 0x100000
 8000416:	bd30      	popcc	{r4, r5, pc}
 8000418:	f001 4500 	and.w	r5, r1, #2147483648	@ 0x80000000
 800041c:	f045 41fe 	orr.w	r1, r5, #2130706432	@ 0x7f000000
 8000420:	f441 0170 	orr.w	r1, r1, #15728640	@ 0xf00000
 8000424:	f04f 0000 	mov.w	r0, #0
 8000428:	bd30      	pop	{r4, r5, pc}
 800042a:	ea7f 5c64 	mvns.w	ip, r4, asr #21
 800042e:	bf1a      	itte	ne
 8000430:	4619      	movne	r1, r3
 8000432:	4610      	movne	r0, r2
 8000434:	ea7f 5c65 	mvnseq.w	ip, r5, asr #21
 8000438:	bf1c      	itt	ne
 800043a:	460b      	movne	r3, r1
 800043c:	4602      	movne	r2, r0
 800043e:	ea50 3401 	orrs.w	r4, r0, r1, lsl #12
 8000442:	bf06      	itte	eq
 8000444:	ea52 3503 	orrseq.w	r5, r2, r3, lsl #12
 8000448:	ea91 0f03 	teqeq	r1, r3
 800044c:	f441 2100 	orrne.w	r1, r1, #524288	@ 0x80000
 8000450:	bd30      	pop	{r4, r5, pc}
 8000452:	bf00      	nop

08000454 <__aeabi_ui2d>:
 8000454:	f090 0f00 	teq	r0, #0
 8000458:	bf04      	itt	eq
 800045a:	2100      	moveq	r1, #0
 800045c:	4770      	bxeq	lr
 800045e:	b530      	push	{r4, r5, lr}
 8000460:	f44f 6480 	mov.w	r4, #1024	@ 0x400
 8000464:	f104 0432 	add.w	r4, r4, #50	@ 0x32
 8000468:	f04f 0500 	mov.w	r5, #0
 800046c:	f04f 0100 	mov.w	r1, #0
 8000470:	e750      	b.n	8000314 <__adddf3+0x138>
 8000472:	bf00      	nop

08000474 <__aeabi_i2d>:
 8000474:	f090 0f00 	teq	r0, #0
 8000478:	bf04      	itt	eq
 800047a:	2100      	moveq	r1, #0
 800047c:	4770      	bxeq	lr
 800047e:	b530      	push	{r4, r5, lr}
 8000480:	f44f 6480 	mov.w	r4, #1024	@ 0x400
 8000484:	f104 0432 	add.w	r4, r4, #50	@ 0x32
 8000488:	f010 4500 	ands.w	r5, r0, #2147483648	@ 0x80000000
 800048c:	bf48      	it	mi
 800048e:	4240      	negmi	r0, r0
 8000490:	f04f 0100 	mov.w	r1, #0
 8000494:	e73e      	b.n	8000314 <__adddf3+0x138>
 8000496:	bf00      	nop

08000498 <__aeabi_f2d>:
 8000498:	0042      	lsls	r2, r0, #1
 800049a:	ea4f 01e2 	mov.w	r1, r2, asr #3
 800049e:	ea4f 0131 	mov.w	r1, r1, rrx
 80004a2:	ea4f 7002 	mov.w	r0, r2, lsl #28
 80004a6:	bf1f      	itttt	ne
 80004a8:	f012 437f 	andsne.w	r3, r2, #4278190080	@ 0xff000000
 80004ac:	f093 4f7f 	teqne	r3, #4278190080	@ 0xff000000
 80004b0:	f081 5160 	eorne.w	r1, r1, #939524096	@ 0x38000000
 80004b4:	4770      	bxne	lr
 80004b6:	f032 427f 	bics.w	r2, r2, #4278190080	@ 0xff000000
 80004ba:	bf08      	it	eq
 80004bc:	4770      	bxeq	lr
 80004be:	f093 4f7f 	teq	r3, #4278190080	@ 0xff000000
 80004c2:	bf04      	itt	eq
 80004c4:	f441 2100 	orreq.w	r1, r1, #524288	@ 0x80000
 80004c8:	4770      	bxeq	lr
 80004ca:	b530      	push	{r4, r5, lr}
 80004cc:	f44f 7460 	mov.w	r4, #896	@ 0x380
 80004d0:	f001 4500 	and.w	r5, r1, #2147483648	@ 0x80000000
 80004d4:	f021 4100 	bic.w	r1, r1, #2147483648	@ 0x80000000
 80004d8:	e71c      	b.n	8000314 <__adddf3+0x138>
 80004da:	bf00      	nop

080004dc <__aeabi_ul2d>:
 80004dc:	ea50 0201 	orrs.w	r2, r0, r1
 80004e0:	bf08      	it	eq
 80004e2:	4770      	bxeq	lr
 80004e4:	b530      	push	{r4, r5, lr}
 80004e6:	f04f 0500 	mov.w	r5, #0
 80004ea:	e00a      	b.n	8000502 <__aeabi_l2d+0x16>

080004ec <__aeabi_l2d>:
 80004ec:	ea50 0201 	orrs.w	r2, r0, r1
 80004f0:	bf08      	it	eq
 80004f2:	4770      	bxeq	lr
 80004f4:	b530      	push	{r4, r5, lr}
 80004f6:	f011 4500 	ands.w	r5, r1, #2147483648	@ 0x80000000
 80004fa:	d502      	bpl.n	8000502 <__aeabi_l2d+0x16>
 80004fc:	4240      	negs	r0, r0
 80004fe:	eb61 0141 	sbc.w	r1, r1, r1, lsl #1
 8000502:	f44f 6480 	mov.w	r4, #1024	@ 0x400
 8000506:	f104 0432 	add.w	r4, r4, #50	@ 0x32
 800050a:	ea5f 5c91 	movs.w	ip, r1, lsr #22
 800050e:	f43f aed8 	beq.w	80002c2 <__adddf3+0xe6>
 8000512:	f04f 0203 	mov.w	r2, #3
 8000516:	ea5f 0cdc 	movs.w	ip, ip, lsr #3
 800051a:	bf18      	it	ne
 800051c:	3203      	addne	r2, #3
 800051e:	ea5f 0cdc 	movs.w	ip, ip, lsr #3
 8000522:	bf18      	it	ne
 8000524:	3203      	addne	r2, #3
 8000526:	eb02 02dc 	add.w	r2, r2, ip, lsr #3
 800052a:	f1c2 0320 	rsb	r3, r2, #32
 800052e:	fa00 fc03 	lsl.w	ip, r0, r3
 8000532:	fa20 f002 	lsr.w	r0, r0, r2
 8000536:	fa01 fe03 	lsl.w	lr, r1, r3
 800053a:	ea40 000e 	orr.w	r0, r0, lr
 800053e:	fa21 f102 	lsr.w	r1, r1, r2
 8000542:	4414      	add	r4, r2
 8000544:	e6bd      	b.n	80002c2 <__adddf3+0xe6>
 8000546:	bf00      	nop

08000548 <__aeabi_dmul>:
 8000548:	b570      	push	{r4, r5, r6, lr}
 800054a:	f04f 0cff 	mov.w	ip, #255	@ 0xff
 800054e:	f44c 6ce0 	orr.w	ip, ip, #1792	@ 0x700
 8000552:	ea1c 5411 	ands.w	r4, ip, r1, lsr #20
 8000556:	bf1d      	ittte	ne
 8000558:	ea1c 5513 	andsne.w	r5, ip, r3, lsr #20
 800055c:	ea94 0f0c 	teqne	r4, ip
 8000560:	ea95 0f0c 	teqne	r5, ip
 8000564:	f000 f8de 	bleq	8000724 <__aeabi_dmul+0x1dc>
 8000568:	442c      	add	r4, r5
 800056a:	ea81 0603 	eor.w	r6, r1, r3
 800056e:	ea21 514c 	bic.w	r1, r1, ip, lsl #21
 8000572:	ea23 534c 	bic.w	r3, r3, ip, lsl #21
 8000576:	ea50 3501 	orrs.w	r5, r0, r1, lsl #12
 800057a:	bf18      	it	ne
 800057c:	ea52 3503 	orrsne.w	r5, r2, r3, lsl #12
 8000580:	f441 1180 	orr.w	r1, r1, #1048576	@ 0x100000
 8000584:	f443 1380 	orr.w	r3, r3, #1048576	@ 0x100000
 8000588:	d038      	beq.n	80005fc <__aeabi_dmul+0xb4>
 800058a:	fba0 ce02 	umull	ip, lr, r0, r2
 800058e:	f04f 0500 	mov.w	r5, #0
 8000592:	fbe1 e502 	umlal	lr, r5, r1, r2
 8000596:	f006 4200 	and.w	r2, r6, #2147483648	@ 0x80000000
 800059a:	fbe0 e503 	umlal	lr, r5, r0, r3
 800059e:	f04f 0600 	mov.w	r6, #0
 80005a2:	fbe1 5603 	umlal	r5, r6, r1, r3
 80005a6:	f09c 0f00 	teq	ip, #0
 80005aa:	bf18      	it	ne
 80005ac:	f04e 0e01 	orrne.w	lr, lr, #1
 80005b0:	f1a4 04ff 	sub.w	r4, r4, #255	@ 0xff
 80005b4:	f5b6 7f00 	cmp.w	r6, #512	@ 0x200
 80005b8:	f564 7440 	sbc.w	r4, r4, #768	@ 0x300
 80005bc:	d204      	bcs.n	80005c8 <__aeabi_dmul+0x80>
 80005be:	ea5f 0e4e 	movs.w	lr, lr, lsl #1
 80005c2:	416d      	adcs	r5, r5
 80005c4:	eb46 0606 	adc.w	r6, r6, r6
 80005c8:	ea42 21c6 	orr.w	r1, r2, r6, lsl #11
 80005cc:	ea41 5155 	orr.w	r1, r1, r5, lsr #21
 80005d0:	ea4f 20c5 	mov.w	r0, r5, lsl #11
 80005d4:	ea40 505e 	orr.w	r0, r0, lr, lsr #21
 80005d8:	ea4f 2ece 	mov.w	lr, lr, lsl #11
 80005dc:	f1b4 0cfd 	subs.w	ip, r4, #253	@ 0xfd
 80005e0:	bf88      	it	hi
 80005e2:	f5bc 6fe0 	cmphi.w	ip, #1792	@ 0x700
 80005e6:	d81e      	bhi.n	8000626 <__aeabi_dmul+0xde>
 80005e8:	f1be 4f00 	cmp.w	lr, #2147483648	@ 0x80000000
 80005ec:	bf08      	it	eq
 80005ee:	ea5f 0e50 	movseq.w	lr, r0, lsr #1
 80005f2:	f150 0000 	adcs.w	r0, r0, #0
 80005f6:	eb41 5104 	adc.w	r1, r1, r4, lsl #20
 80005fa:	bd70      	pop	{r4, r5, r6, pc}
 80005fc:	f006 4600 	and.w	r6, r6, #2147483648	@ 0x80000000
 8000600:	ea46 0101 	orr.w	r1, r6, r1
 8000604:	ea40 0002 	orr.w	r0, r0, r2
 8000608:	ea81 0103 	eor.w	r1, r1, r3
 800060c:	ebb4 045c 	subs.w	r4, r4, ip, lsr #1
 8000610:	bfc2      	ittt	gt
 8000612:	ebd4 050c 	rsbsgt	r5, r4, ip
 8000616:	ea41 5104 	orrgt.w	r1, r1, r4, lsl #20
 800061a:	bd70      	popgt	{r4, r5, r6, pc}
 800061c:	f441 1180 	orr.w	r1, r1, #1048576	@ 0x100000
 8000620:	f04f 0e00 	mov.w	lr, #0
 8000624:	3c01      	subs	r4, #1
 8000626:	f300 80ab 	bgt.w	8000780 <__aeabi_dmul+0x238>
 800062a:	f114 0f36 	cmn.w	r4, #54	@ 0x36
 800062e:	bfde      	ittt	le
 8000630:	2000      	movle	r0, #0
 8000632:	f001 4100 	andle.w	r1, r1, #2147483648	@ 0x80000000
 8000636:	bd70      	pople	{r4, r5, r6, pc}
 8000638:	f1c4 0400 	rsb	r4, r4, #0
 800063c:	3c20      	subs	r4, #32
 800063e:	da35      	bge.n	80006ac <__aeabi_dmul+0x164>
 8000640:	340c      	adds	r4, #12
 8000642:	dc1b      	bgt.n	800067c <__aeabi_dmul+0x134>
 8000644:	f104 0414 	add.w	r4, r4, #20
 8000648:	f1c4 0520 	rsb	r5, r4, #32
 800064c:	fa00 f305 	lsl.w	r3, r0, r5
 8000650:	fa20 f004 	lsr.w	r0, r0, r4
 8000654:	fa01 f205 	lsl.w	r2, r1, r5
 8000658:	ea40 0002 	orr.w	r0, r0, r2
 800065c:	f001 4200 	and.w	r2, r1, #2147483648	@ 0x80000000
 8000660:	f021 4100 	bic.w	r1, r1, #2147483648	@ 0x80000000
 8000664:	eb10 70d3 	adds.w	r0, r0, r3, lsr #31
 8000668:	fa21 f604 	lsr.w	r6, r1, r4
 800066c:	eb42 0106 	adc.w	r1, r2, r6
 8000670:	ea5e 0e43 	orrs.w	lr, lr, r3, lsl #1
 8000674:	bf08      	it	eq
 8000676:	ea20 70d3 	biceq.w	r0, r0, r3, lsr #31
 800067a:	bd70      	pop	{r4, r5, r6, pc}
 800067c:	f1c4 040c 	rsb	r4, r4, #12
 8000680:	f1c4 0520 	rsb	r5, r4, #32
 8000684:	fa00 f304 	lsl.w	r3, r0, r4
 8000688:	fa20 f005 	lsr.w	r0, r0, r5
 800068c:	fa01 f204 	lsl.w	r2, r1, r4
 8000690:	ea40 0002 	orr.w	r0, r0, r2
 8000694:	f001 4100 	and.w	r1, r1, #2147483648	@ 0x80000000
 8000698:	eb10 70d3 	adds.w	r0, r0, r3, lsr #31
 800069c:	f141 0100 	adc.w	r1, r1, #0
 80006a0:	ea5e 0e43 	orrs.w	lr, lr, r3, lsl #1
 80006a4:	bf08      	it	eq
 80006a6:	ea20 70d3 	biceq.w	r0, r0, r3, lsr #31
 80006aa:	bd70      	pop	{r4, r5, r6, pc}
 80006ac:	f1c4 0520 	rsb	r5, r4, #32
 80006b0:	fa00 f205 	lsl.w	r2, r0, r5
 80006b4:	ea4e 0e02 	orr.w	lr, lr, r2
 80006b8:	fa20 f304 	lsr.w	r3, r0, r4
 80006bc:	fa01 f205 	lsl.w	r2, r1, r5
 80006c0:	ea43 0302 	orr.w	r3, r3, r2
 80006c4:	fa21 f004 	lsr.w	r0, r1, r4
 80006c8:	f001 4100 	and.w	r1, r1, #2147483648	@ 0x80000000
 80006cc:	fa21 f204 	lsr.w	r2, r1, r4
 80006d0:	ea20 0002 	bic.w	r0, r0, r2
 80006d4:	eb00 70d3 	add.w	r0, r0, r3, lsr #31
 80006d8:	ea5e 0e43 	orrs.w	lr, lr, r3, lsl #1
 80006dc:	bf08      	it	eq
 80006de:	ea20 70d3 	biceq.w	r0, r0, r3, lsr #31
 80006e2:	bd70      	pop	{r4, r5, r6, pc}
 80006e4:	f094 0f00 	teq	r4, #0
 80006e8:	d10f      	bne.n	800070a <__aeabi_dmul+0x1c2>
 80006ea:	f001 4600 	and.w	r6, r1, #2147483648	@ 0x80000000
 80006ee:	0040      	lsls	r0, r0, #1
 80006f0:	eb41 0101 	adc.w	r1, r1, r1
 80006f4:	f411 1f80 	tst.w	r1, #1048576	@ 0x100000
 80006f8:	bf08      	it	eq
 80006fa:	3c01      	subeq	r4, #1
 80006fc:	d0f7      	beq.n	80006ee <__aeabi_dmul+0x1a6>
 80006fe:	ea41 0106 	orr.w	r1, r1, r6
 8000702:	f095 0f00 	teq	r5, #0
 8000706:	bf18      	it	ne
 8000708:	4770      	bxne	lr
 800070a:	f003 4600 	and.w	r6, r3, #2147483648	@ 0x80000000
 800070e:	0052      	lsls	r2, r2, #1
 8000710:	eb43 0303 	adc.w	r3, r3, r3
 8000714:	f413 1f80 	tst.w	r3, #1048576	@ 0x100000
 8000718:	bf08      	it	eq
 800071a:	3d01      	subeq	r5, #1
 800071c:	d0f7      	beq.n	800070e <__aeabi_dmul+0x1c6>
 800071e:	ea43 0306 	orr.w	r3, r3, r6
 8000722:	4770      	bx	lr
 8000724:	ea94 0f0c 	teq	r4, ip
 8000728:	ea0c 5513 	and.w	r5, ip, r3, lsr #20
 800072c:	bf18      	it	ne
 800072e:	ea95 0f0c 	teqne	r5, ip
 8000732:	d00c      	beq.n	800074e <__aeabi_dmul+0x206>
 8000734:	ea50 0641 	orrs.w	r6, r0, r1, lsl #1
 8000738:	bf18      	it	ne
 800073a:	ea52 0643 	orrsne.w	r6, r2, r3, lsl #1
 800073e:	d1d1      	bne.n	80006e4 <__aeabi_dmul+0x19c>
 8000740:	ea81 0103 	eor.w	r1, r1, r3
 8000744:	f001 4100 	and.w	r1, r1, #2147483648	@ 0x80000000
 8000748:	f04f 0000 	mov.w	r0, #0
 800074c:	bd70      	pop	{r4, r5, r6, pc}
 800074e:	ea50 0641 	orrs.w	r6, r0, r1, lsl #1
 8000752:	bf06      	itte	eq
 8000754:	4610      	moveq	r0, r2
 8000756:	4619      	moveq	r1, r3
 8000758:	ea52 0643 	orrsne.w	r6, r2, r3, lsl #1
 800075c:	d019      	beq.n	8000792 <__aeabi_dmul+0x24a>
 800075e:	ea94 0f0c 	teq	r4, ip
 8000762:	d102      	bne.n	800076a <__aeabi_dmul+0x222>
 8000764:	ea50 3601 	orrs.w	r6, r0, r1, lsl #12
 8000768:	d113      	bne.n	8000792 <__aeabi_dmul+0x24a>
 800076a:	ea95 0f0c 	teq	r5, ip
 800076e:	d105      	bne.n	800077c <__aeabi_dmul+0x234>
 8000770:	ea52 3603 	orrs.w	r6, r2, r3, lsl #12
 8000774:	bf1c      	itt	ne
 8000776:	4610      	movne	r0, r2
 8000778:	4619      	movne	r1, r3
 800077a:	d10a      	bne.n	8000792 <__aeabi_dmul+0x24a>
 800077c:	ea81 0103 	eor.w	r1, r1, r3
 8000780:	f001 4100 	and.w	r1, r1, #2147483648	@ 0x80000000
 8000784:	f041 41fe 	orr.w	r1, r1, #2130706432	@ 0x7f000000
 8000788:	f441 0170 	orr.w	r1, r1, #15728640	@ 0xf00000
 800078c:	f04f 0000 	mov.w	r0, #0
 8000790:	bd70      	pop	{r4, r5, r6, pc}
 8000792:	f041 41fe 	orr.w	r1, r1, #2130706432	@ 0x7f000000
 8000796:	f441 0178 	orr.w	r1, r1, #16252928	@ 0xf80000
 800079a:	bd70      	pop	{r4, r5, r6, pc}

0800079c <__aeabi_ddiv>:
 800079c:	b570      	push	{r4, r5, r6, lr}
 800079e:	f04f 0cff 	mov.w	ip, #255	@ 0xff
 80007a2:	f44c 6ce0 	orr.w	ip, ip, #1792	@ 0x700
 80007a6:	ea1c 5411 	ands.w	r4, ip, r1, lsr #20
 80007aa:	bf1d      	ittte	ne
 80007ac:	ea1c 5513 	andsne.w	r5, ip, r3, lsr #20
 80007b0:	ea94 0f0c 	teqne	r4, ip
 80007b4:	ea95 0f0c 	teqne	r5, ip
 80007b8:	f000 f8a7 	bleq	800090a <__aeabi_ddiv+0x16e>
 80007bc:	eba4 0405 	sub.w	r4, r4, r5
 80007c0:	ea81 0e03 	eor.w	lr, r1, r3
 80007c4:	ea52 3503 	orrs.w	r5, r2, r3, lsl #12
 80007c8:	ea4f 3101 	mov.w	r1, r1, lsl #12
 80007cc:	f000 8088 	beq.w	80008e0 <__aeabi_ddiv+0x144>
 80007d0:	ea4f 3303 	mov.w	r3, r3, lsl #12
 80007d4:	f04f 5580 	mov.w	r5, #268435456	@ 0x10000000
 80007d8:	ea45 1313 	orr.w	r3, r5, r3, lsr #4
 80007dc:	ea43 6312 	orr.w	r3, r3, r2, lsr #24
 80007e0:	ea4f 2202 	mov.w	r2, r2, lsl #8
 80007e4:	ea45 1511 	orr.w	r5, r5, r1, lsr #4
 80007e8:	ea45 6510 	orr.w	r5, r5, r0, lsr #24
 80007ec:	ea4f 2600 	mov.w	r6, r0, lsl #8
 80007f0:	f00e 4100 	and.w	r1, lr, #2147483648	@ 0x80000000
 80007f4:	429d      	cmp	r5, r3
 80007f6:	bf08      	it	eq
 80007f8:	4296      	cmpeq	r6, r2
 80007fa:	f144 04fd 	adc.w	r4, r4, #253	@ 0xfd
 80007fe:	f504 7440 	add.w	r4, r4, #768	@ 0x300
 8000802:	d202      	bcs.n	800080a <__aeabi_ddiv+0x6e>
 8000804:	085b      	lsrs	r3, r3, #1
 8000806:	ea4f 0232 	mov.w	r2, r2, rrx
 800080a:	1ab6      	subs	r6, r6, r2
 800080c:	eb65 0503 	sbc.w	r5, r5, r3
 8000810:	085b      	lsrs	r3, r3, #1
 8000812:	ea4f 0232 	mov.w	r2, r2, rrx
 8000816:	f44f 1080 	mov.w	r0, #1048576	@ 0x100000
 800081a:	f44f 2c00 	mov.w	ip, #524288	@ 0x80000
 800081e:	ebb6 0e02 	subs.w	lr, r6, r2
 8000822:	eb75 0e03 	sbcs.w	lr, r5, r3
 8000826:	bf22      	ittt	cs
 8000828:	1ab6      	subcs	r6, r6, r2
 800082a:	4675      	movcs	r5, lr
 800082c:	ea40 000c 	orrcs.w	r0, r0, ip
 8000830:	085b      	lsrs	r3, r3, #1
 8000832:	ea4f 0232 	mov.w	r2, r2, rrx
 8000836:	ebb6 0e02 	subs.w	lr, r6, r2
 800083a:	eb75 0e03 	sbcs.w	lr, r5, r3
 800083e:	bf22      	ittt	cs
 8000840:	1ab6      	subcs	r6, r6, r2
 8000842:	4675      	movcs	r5, lr
 8000844:	ea40 005c 	orrcs.w	r0, r0, ip, lsr #1
 8000848:	085b      	lsrs	r3, r3, #1
 800084a:	ea4f 0232 	mov.w	r2, r2, rrx
 800084e:	ebb6 0e02 	subs.w	lr, r6, r2
 8000852:	eb75 0e03 	sbcs.w	lr, r5, r3
 8000856:	bf22      	ittt	cs
 8000858:	1ab6      	subcs	r6, r6, r2
 800085a:	4675      	movcs	r5, lr
 800085c:	ea40 009c 	orrcs.w	r0, r0, ip, lsr #2
 8000860:	085b      	lsrs	r3, r3, #1
 8000862:	ea4f 0232 	mov.w	r2, r2, rrx
 8000866:	ebb6 0e02 	subs.w	lr, r6, r2
 800086a:	eb75 0e03 	sbcs.w	lr, r5, r3
 800086e:	bf22      	ittt	cs
 8000870:	1ab6      	subcs	r6, r6, r2
 8000872:	4675      	movcs	r5, lr
 8000874:	ea40 00dc 	orrcs.w	r0, r0, ip, lsr #3
 8000878:	ea55 0e06 	orrs.w	lr, r5, r6
 800087c:	d018      	beq.n	80008b0 <__aeabi_ddiv+0x114>
 800087e:	ea4f 1505 	mov.w	r5, r5, lsl #4
 8000882:	ea45 7516 	orr.w	r5, r5, r6, lsr #28
 8000886:	ea4f 1606 	mov.w	r6, r6, lsl #4
 800088a:	ea4f 03c3 	mov.w	r3, r3, lsl #3
 800088e:	ea43 7352 	orr.w	r3, r3, r2, lsr #29
 8000892:	ea4f 02c2 	mov.w	r2, r2, lsl #3
 8000896:	ea5f 1c1c 	movs.w	ip, ip, lsr #4
 800089a:	d1c0      	bne.n	800081e <__aeabi_ddiv+0x82>
 800089c:	f411 1f80 	tst.w	r1, #1048576	@ 0x100000
 80008a0:	d10b      	bne.n	80008ba <__aeabi_ddiv+0x11e>
 80008a2:	ea41 0100 	orr.w	r1, r1, r0
 80008a6:	f04f 0000 	mov.w	r0, #0
 80008aa:	f04f 4c00 	mov.w	ip, #2147483648	@ 0x80000000
 80008ae:	e7b6      	b.n	800081e <__aeabi_ddiv+0x82>
 80008b0:	f411 1f80 	tst.w	r1, #1048576	@ 0x100000
 80008b4:	bf04      	itt	eq
 80008b6:	4301      	orreq	r1, r0
 80008b8:	2000      	moveq	r0, #0
 80008ba:	f1b4 0cfd 	subs.w	ip, r4, #253	@ 0xfd
 80008be:	bf88      	it	hi
 80008c0:	f5bc 6fe0 	cmphi.w	ip, #1792	@ 0x700
 80008c4:	f63f aeaf 	bhi.w	8000626 <__aeabi_dmul+0xde>
 80008c8:	ebb5 0c03 	subs.w	ip, r5, r3
 80008cc:	bf04      	itt	eq
 80008ce:	ebb6 0c02 	subseq.w	ip, r6, r2
 80008d2:	ea5f 0c50 	movseq.w	ip, r0, lsr #1
 80008d6:	f150 0000 	adcs.w	r0, r0, #0
 80008da:	eb41 5104 	adc.w	r1, r1, r4, lsl #20
 80008de:	bd70      	pop	{r4, r5, r6, pc}
 80008e0:	f00e 4e00 	and.w	lr, lr, #2147483648	@ 0x80000000
 80008e4:	ea4e 3111 	orr.w	r1, lr, r1, lsr #12
 80008e8:	eb14 045c 	adds.w	r4, r4, ip, lsr #1
 80008ec:	bfc2      	ittt	gt
 80008ee:	ebd4 050c 	rsbsgt	r5, r4, ip
 80008f2:	ea41 5104 	orrgt.w	r1, r1, r4, lsl #20
 80008f6:	bd70      	popgt	{r4, r5, r6, pc}
 80008f8:	f441 1180 	orr.w	r1, r1, #1048576	@ 0x100000
 80008fc:	f04f 0e00 	mov.w	lr, #0
 8000900:	3c01      	subs	r4, #1
 8000902:	e690      	b.n	8000626 <__aeabi_dmul+0xde>
 8000904:	ea45 0e06 	orr.w	lr, r5, r6
 8000908:	e68d      	b.n	8000626 <__aeabi_dmul+0xde>
 800090a:	ea0c 5513 	and.w	r5, ip, r3, lsr #20
 800090e:	ea94 0f0c 	teq	r4, ip
 8000912:	bf08      	it	eq
 8000914:	ea95 0f0c 	teqeq	r5, ip
 8000918:	f43f af3b 	beq.w	8000792 <__aeabi_dmul+0x24a>
 800091c:	ea94 0f0c 	teq	r4, ip
 8000920:	d10a      	bne.n	8000938 <__aeabi_ddiv+0x19c>
 8000922:	ea50 3401 	orrs.w	r4, r0, r1, lsl #12
 8000926:	f47f af34 	bne.w	8000792 <__aeabi_dmul+0x24a>
 800092a:	ea95 0f0c 	teq	r5, ip
 800092e:	f47f af25 	bne.w	800077c <__aeabi_dmul+0x234>
 8000932:	4610      	mov	r0, r2
 8000934:	4619      	mov	r1, r3
 8000936:	e72c      	b.n	8000792 <__aeabi_dmul+0x24a>
 8000938:	ea95 0f0c 	teq	r5, ip
 800093c:	d106      	bne.n	800094c <__aeabi_ddiv+0x1b0>
 800093e:	ea52 3503 	orrs.w	r5, r2, r3, lsl #12
 8000942:	f43f aefd 	beq.w	8000740 <__aeabi_dmul+0x1f8>
 8000946:	4610      	mov	r0, r2
 8000948:	4619      	mov	r1, r3
 800094a:	e722      	b.n	8000792 <__aeabi_dmul+0x24a>
 800094c:	ea50 0641 	orrs.w	r6, r0, r1, lsl #1
 8000950:	bf18      	it	ne
 8000952:	ea52 0643 	orrsne.w	r6, r2, r3, lsl #1
 8000956:	f47f aec5 	bne.w	80006e4 <__aeabi_dmul+0x19c>
 800095a:	ea50 0441 	orrs.w	r4, r0, r1, lsl #1
 800095e:	f47f af0d 	bne.w	800077c <__aeabi_dmul+0x234>
 8000962:	ea52 0543 	orrs.w	r5, r2, r3, lsl #1
 8000966:	f47f aeeb 	bne.w	8000740 <__aeabi_dmul+0x1f8>
 800096a:	e712      	b.n	8000792 <__aeabi_dmul+0x24a>

0800096c <__gedf2>:
 800096c:	f04f 3cff 	mov.w	ip, #4294967295
 8000970:	e006      	b.n	8000980 <__cmpdf2+0x4>
 8000972:	bf00      	nop

08000974 <__ledf2>:
 8000974:	f04f 0c01 	mov.w	ip, #1
 8000978:	e002      	b.n	8000980 <__cmpdf2+0x4>
 800097a:	bf00      	nop

0800097c <__cmpdf2>:
 800097c:	f04f 0c01 	mov.w	ip, #1
 8000980:	f84d cd04 	str.w	ip, [sp, #-4]!
 8000984:	ea4f 0c41 	mov.w	ip, r1, lsl #1
 8000988:	ea7f 5c6c 	mvns.w	ip, ip, asr #21
 800098c:	ea4f 0c43 	mov.w	ip, r3, lsl #1
 8000990:	bf18      	it	ne
 8000992:	ea7f 5c6c 	mvnsne.w	ip, ip, asr #21
 8000996:	d01b      	beq.n	80009d0 <__cmpdf2+0x54>
 8000998:	b001      	add	sp, #4
 800099a:	ea50 0c41 	orrs.w	ip, r0, r1, lsl #1
 800099e:	bf0c      	ite	eq
 80009a0:	ea52 0c43 	orrseq.w	ip, r2, r3, lsl #1
 80009a4:	ea91 0f03 	teqne	r1, r3
 80009a8:	bf02      	ittt	eq
 80009aa:	ea90 0f02 	teqeq	r0, r2
 80009ae:	2000      	moveq	r0, #0
 80009b0:	4770      	bxeq	lr
 80009b2:	f110 0f00 	cmn.w	r0, #0
 80009b6:	ea91 0f03 	teq	r1, r3
 80009ba:	bf58      	it	pl
 80009bc:	4299      	cmppl	r1, r3
 80009be:	bf08      	it	eq
 80009c0:	4290      	cmpeq	r0, r2
 80009c2:	bf2c      	ite	cs
 80009c4:	17d8      	asrcs	r0, r3, #31
 80009c6:	ea6f 70e3 	mvncc.w	r0, r3, asr #31
 80009ca:	f040 0001 	orr.w	r0, r0, #1
 80009ce:	4770      	bx	lr
 80009d0:	ea4f 0c41 	mov.w	ip, r1, lsl #1
 80009d4:	ea7f 5c6c 	mvns.w	ip, ip, asr #21
 80009d8:	d102      	bne.n	80009e0 <__cmpdf2+0x64>
 80009da:	ea50 3c01 	orrs.w	ip, r0, r1, lsl #12
 80009de:	d107      	bne.n	80009f0 <__cmpdf2+0x74>
 80009e0:	ea4f 0c43 	mov.w	ip, r3, lsl #1
 80009e4:	ea7f 5c6c 	mvns.w	ip, ip, asr #21
 80009e8:	d1d6      	bne.n	8000998 <__cmpdf2+0x1c>
 80009ea:	ea52 3c03 	orrs.w	ip, r2, r3, lsl #12
 80009ee:	d0d3      	beq.n	8000998 <__cmpdf2+0x1c>
 80009f0:	f85d 0b04 	ldr.w	r0, [sp], #4
 80009f4:	4770      	bx	lr
 80009f6:	bf00      	nop

080009f8 <__aeabi_cdrcmple>:
 80009f8:	4684      	mov	ip, r0
 80009fa:	4610      	mov	r0, r2
 80009fc:	4662      	mov	r2, ip
 80009fe:	468c      	mov	ip, r1
 8000a00:	4619      	mov	r1, r3
 8000a02:	4663      	mov	r3, ip
 8000a04:	e000      	b.n	8000a08 <__aeabi_cdcmpeq>
 8000a06:	bf00      	nop

08000a08 <__aeabi_cdcmpeq>:
 8000a08:	b501      	push	{r0, lr}
 8000a0a:	f7ff ffb7 	bl	800097c <__cmpdf2>
 8000a0e:	2800      	cmp	r0, #0
 8000a10:	bf48      	it	mi
 8000a12:	f110 0f00 	cmnmi.w	r0, #0
 8000a16:	bd01      	pop	{r0, pc}

08000a18 <__aeabi_dcmpeq>:
 8000a18:	f84d ed08 	str.w	lr, [sp, #-8]!
 8000a1c:	f7ff fff4 	bl	8000a08 <__aeabi_cdcmpeq>
 8000a20:	bf0c      	ite	eq
 8000a22:	2001      	moveq	r0, #1
 8000a24:	2000      	movne	r0, #0
 8000a26:	f85d fb08 	ldr.w	pc, [sp], #8
 8000a2a:	bf00      	nop

08000a2c <__aeabi_dcmplt>:
 8000a2c:	f84d ed08 	str.w	lr, [sp, #-8]!
 8000a30:	f7ff ffea 	bl	8000a08 <__aeabi_cdcmpeq>
 8000a34:	bf34      	ite	cc
 8000a36:	2001      	movcc	r0, #1
 8000a38:	2000      	movcs	r0, #0
 8000a3a:	f85d fb08 	ldr.w	pc, [sp], #8
 8000a3e:	bf00      	nop

08000a40 <__aeabi_dcmple>:
 8000a40:	f84d ed08 	str.w	lr, [sp, #-8]!
 8000a44:	f7ff ffe0 	bl	8000a08 <__aeabi_cdcmpeq>
 8000a48:	bf94      	ite	ls
 8000a4a:	2001      	movls	r0, #1
 8000a4c:	2000      	movhi	r0, #0
 8000a4e:	f85d fb08 	ldr.w	pc, [sp], #8
 8000a52:	bf00      	nop

08000a54 <__aeabi_dcmpge>:
 8000a54:	f84d ed08 	str.w	lr, [sp, #-8]!
 8000a58:	f7ff ffce 	bl	80009f8 <__aeabi_cdrcmple>
 8000a5c:	bf94      	ite	ls
 8000a5e:	2001      	movls	r0, #1
 8000a60:	2000      	movhi	r0, #0
 8000a62:	f85d fb08 	ldr.w	pc, [sp], #8
 8000a66:	bf00      	nop

08000a68 <__aeabi_dcmpgt>:
 8000a68:	f84d ed08 	str.w	lr, [sp, #-8]!
 8000a6c:	f7ff ffc4 	bl	80009f8 <__aeabi_cdrcmple>
 8000a70:	bf34      	ite	cc
 8000a72:	2001      	movcc	r0, #1
 8000a74:	2000      	movcs	r0, #0
 8000a76:	f85d fb08 	ldr.w	pc, [sp], #8
 8000a7a:	bf00      	nop

08000a7c <__aeabi_dcmpun>:
 8000a7c:	ea4f 0c41 	mov.w	ip, r1, lsl #1
 8000a80:	ea7f 5c6c 	mvns.w	ip, ip, asr #21
 8000a84:	d102      	bne.n	8000a8c <__aeabi_dcmpun+0x10>
 8000a86:	ea50 3c01 	orrs.w	ip, r0, r1, lsl #12
 8000a8a:	d10a      	bne.n	8000aa2 <__aeabi_dcmpun+0x26>
 8000a8c:	ea4f 0c43 	mov.w	ip, r3, lsl #1
 8000a90:	ea7f 5c6c 	mvns.w	ip, ip, asr #21
 8000a94:	d102      	bne.n	8000a9c <__aeabi_dcmpun+0x20>
 8000a96:	ea52 3c03 	orrs.w	ip, r2, r3, lsl #12
 8000a9a:	d102      	bne.n	8000aa2 <__aeabi_dcmpun+0x26>
 8000a9c:	f04f 0000 	mov.w	r0, #0
 8000aa0:	4770      	bx	lr
 8000aa2:	f04f 0001 	mov.w	r0, #1
 8000aa6:	4770      	bx	lr

08000aa8 <__aeabi_d2iz>:
 8000aa8:	ea4f 0241 	mov.w	r2, r1, lsl #1
 8000aac:	f512 1200 	adds.w	r2, r2, #2097152	@ 0x200000
 8000ab0:	d215      	bcs.n	8000ade <__aeabi_d2iz+0x36>
 8000ab2:	d511      	bpl.n	8000ad8 <__aeabi_d2iz+0x30>
 8000ab4:	f46f 7378 	mvn.w	r3, #992	@ 0x3e0
 8000ab8:	ebb3 5262 	subs.w	r2, r3, r2, asr #21
 8000abc:	d912      	bls.n	8000ae4 <__aeabi_d2iz+0x3c>
 8000abe:	ea4f 23c1 	mov.w	r3, r1, lsl #11
 8000ac2:	f043 4300 	orr.w	r3, r3, #2147483648	@ 0x80000000
 8000ac6:	ea43 5350 	orr.w	r3, r3, r0, lsr #21
 8000aca:	f011 4f00 	tst.w	r1, #2147483648	@ 0x80000000
 8000ace:	fa23 f002 	lsr.w	r0, r3, r2
 8000ad2:	bf18      	it	ne
 8000ad4:	4240      	negne	r0, r0
 8000ad6:	4770      	bx	lr
 8000ad8:	f04f 0000 	mov.w	r0, #0
 8000adc:	4770      	bx	lr
 8000ade:	ea50 3001 	orrs.w	r0, r0, r1, lsl #12
 8000ae2:	d105      	bne.n	8000af0 <__aeabi_d2iz+0x48>
 8000ae4:	f011 4000 	ands.w	r0, r1, #2147483648	@ 0x80000000
 8000ae8:	bf08      	it	eq
 8000aea:	f06f 4000 	mvneq.w	r0, #2147483648	@ 0x80000000
 8000aee:	4770      	bx	lr
 8000af0:	f04f 0000 	mov.w	r0, #0
 8000af4:	4770      	bx	lr
 8000af6:	bf00      	nop

08000af8 <__aeabi_d2f>:
 8000af8:	ea4f 0241 	mov.w	r2, r1, lsl #1
 8000afc:	f1b2 43e0 	subs.w	r3, r2, #1879048192	@ 0x70000000
 8000b00:	bf24      	itt	cs
 8000b02:	f5b3 1c00 	subscs.w	ip, r3, #2097152	@ 0x200000
 8000b06:	f1dc 5cfe 	rsbscs	ip, ip, #532676608	@ 0x1fc00000
 8000b0a:	d90d      	bls.n	8000b28 <__aeabi_d2f+0x30>
 8000b0c:	f001 4c00 	and.w	ip, r1, #2147483648	@ 0x80000000
 8000b10:	ea4f 02c0 	mov.w	r2, r0, lsl #3
 8000b14:	ea4c 7050 	orr.w	r0, ip, r0, lsr #29
 8000b18:	f1b2 4f00 	cmp.w	r2, #2147483648	@ 0x80000000
 8000b1c:	eb40 0083 	adc.w	r0, r0, r3, lsl #2
 8000b20:	bf08      	it	eq
 8000b22:	f020 0001 	biceq.w	r0, r0, #1
 8000b26:	4770      	bx	lr
 8000b28:	f011 4f80 	tst.w	r1, #1073741824	@ 0x40000000
 8000b2c:	d121      	bne.n	8000b72 <__aeabi_d2f+0x7a>
 8000b2e:	f113 7238 	adds.w	r2, r3, #48234496	@ 0x2e00000
 8000b32:	bfbc      	itt	lt
 8000b34:	f001 4000 	andlt.w	r0, r1, #2147483648	@ 0x80000000
 8000b38:	4770      	bxlt	lr
 8000b3a:	f441 1180 	orr.w	r1, r1, #1048576	@ 0x100000
 8000b3e:	ea4f 5252 	mov.w	r2, r2, lsr #21
 8000b42:	f1c2 0218 	rsb	r2, r2, #24
 8000b46:	f1c2 0c20 	rsb	ip, r2, #32
 8000b4a:	fa10 f30c 	lsls.w	r3, r0, ip
 8000b4e:	fa20 f002 	lsr.w	r0, r0, r2
 8000b52:	bf18      	it	ne
 8000b54:	f040 0001 	orrne.w	r0, r0, #1
 8000b58:	ea4f 23c1 	mov.w	r3, r1, lsl #11
 8000b5c:	ea4f 23d3 	mov.w	r3, r3, lsr #11
 8000b60:	fa03 fc0c 	lsl.w	ip, r3, ip
 8000b64:	ea40 000c 	orr.w	r0, r0, ip
 8000b68:	fa23 f302 	lsr.w	r3, r3, r2
 8000b6c:	ea4f 0343 	mov.w	r3, r3, lsl #1
 8000b70:	e7cc      	b.n	8000b0c <__aeabi_d2f+0x14>
 8000b72:	ea7f 5362 	mvns.w	r3, r2, asr #21
 8000b76:	d107      	bne.n	8000b88 <__aeabi_d2f+0x90>
 8000b78:	ea50 3301 	orrs.w	r3, r0, r1, lsl #12
 8000b7c:	bf1e      	ittt	ne
 8000b7e:	f04f 40fe 	movne.w	r0, #2130706432	@ 0x7f000000
 8000b82:	f440 0040 	orrne.w	r0, r0, #12582912	@ 0xc00000
 8000b86:	4770      	bxne	lr
 8000b88:	f001 4000 	and.w	r0, r1, #2147483648	@ 0x80000000
 8000b8c:	f040 40fe 	orr.w	r0, r0, #2130706432	@ 0x7f000000
 8000b90:	f440 0000 	orr.w	r0, r0, #8388608	@ 0x800000
 8000b94:	4770      	bx	lr
 8000b96:	bf00      	nop

08000b98 <_Z11WriteParamsv>:
    type c = a;
    a = b;
    b = c;
}

void WriteParams(){}
 8000b98:	b480      	push	{r7}
 8000b9a:	af00      	add	r7, sp, #0
 8000b9c:	bf00      	nop
 8000b9e:	46bd      	mov	sp, r7
 8000ba0:	f85d 7b04 	ldr.w	r7, [sp], #4
 8000ba4:	4770      	bx	lr
	...

08000ba8 <_Z12WriteCommandhPhh>:
	HAL_SPI_Transmit(DisplayHandle, (uint8_t*)&Command, 1, 100);
	HAL_GPIO_WritePin(DC_PORT, DC_PIN, GPIO_PIN_SET);
    WriteParams(Args...);
}

void WriteCommand(unsigned char Command, unsigned char* Params = NULL, unsigned char NumParams = 0){
 8000ba8:	b580      	push	{r7, lr}
 8000baa:	b084      	sub	sp, #16
 8000bac:	af00      	add	r7, sp, #0
 8000bae:	4603      	mov	r3, r0
 8000bb0:	6039      	str	r1, [r7, #0]
 8000bb2:	71fb      	strb	r3, [r7, #7]
 8000bb4:	4613      	mov	r3, r2
 8000bb6:	71bb      	strb	r3, [r7, #6]
	HAL_GPIO_WritePin(DC_PORT, DC_PIN, GPIO_PIN_RESET);
 8000bb8:	2200      	movs	r2, #0
 8000bba:	2101      	movs	r1, #1
 8000bbc:	4813      	ldr	r0, [pc, #76]	@ (8000c0c <_Z12WriteCommandhPhh+0x64>)
 8000bbe:	f001 faa1 	bl	8002104 <HAL_GPIO_WritePin>
    HAL_SPI_Transmit(DisplayHandle, (uint8_t*)&Command, 1, 100);
 8000bc2:	4b13      	ldr	r3, [pc, #76]	@ (8000c10 <_Z12WriteCommandhPhh+0x68>)
 8000bc4:	6818      	ldr	r0, [r3, #0]
 8000bc6:	1df9      	adds	r1, r7, #7
 8000bc8:	2364      	movs	r3, #100	@ 0x64
 8000bca:	2201      	movs	r2, #1
 8000bcc:	f002 f9b9 	bl	8002f42 <HAL_SPI_Transmit>
	HAL_GPIO_WritePin(DC_PORT, DC_PIN, GPIO_PIN_SET);
 8000bd0:	2201      	movs	r2, #1
 8000bd2:	2101      	movs	r1, #1
 8000bd4:	480d      	ldr	r0, [pc, #52]	@ (8000c0c <_Z12WriteCommandhPhh+0x64>)
 8000bd6:	f001 fa95 	bl	8002104 <HAL_GPIO_WritePin>
    for(int i = 0; i < NumParams; i++){
 8000bda:	2300      	movs	r3, #0
 8000bdc:	60fb      	str	r3, [r7, #12]
 8000bde:	e00b      	b.n	8000bf8 <_Z12WriteCommandhPhh+0x50>
    	HAL_SPI_Transmit(DisplayHandle, (uint8_t*)&Params[i], 1, 100);
 8000be0:	4b0b      	ldr	r3, [pc, #44]	@ (8000c10 <_Z12WriteCommandhPhh+0x68>)
 8000be2:	6818      	ldr	r0, [r3, #0]
 8000be4:	68fb      	ldr	r3, [r7, #12]
 8000be6:	683a      	ldr	r2, [r7, #0]
 8000be8:	18d1      	adds	r1, r2, r3
 8000bea:	2364      	movs	r3, #100	@ 0x64
 8000bec:	2201      	movs	r2, #1
 8000bee:	f002 f9a8 	bl	8002f42 <HAL_SPI_Transmit>
    for(int i = 0; i < NumParams; i++){
 8000bf2:	68fb      	ldr	r3, [r7, #12]
 8000bf4:	3301      	adds	r3, #1
 8000bf6:	60fb      	str	r3, [r7, #12]
 8000bf8:	79bb      	ldrb	r3, [r7, #6]
 8000bfa:	68fa      	ldr	r2, [r7, #12]
 8000bfc:	429a      	cmp	r2, r3
 8000bfe:	dbef      	blt.n	8000be0 <_Z12WriteCommandhPhh+0x38>
    }
}
 8000c00:	bf00      	nop
 8000c02:	bf00      	nop
 8000c04:	3710      	adds	r7, #16
 8000c06:	46bd      	mov	sp, r7
 8000c08:	bd80      	pop	{r7, pc}
 8000c0a:	bf00      	nop
 8000c0c:	48000400 	.word	0x48000400
 8000c10:	2000c92c 	.word	0x2000c92c

08000c14 <_Z7HWResetv>:

void HWReset(){
 8000c14:	b580      	push	{r7, lr}
 8000c16:	af00      	add	r7, sp, #0
	HAL_GPIO_WritePin(RES_PORT, RES_PIN, GPIO_PIN_RESET);
 8000c18:	2200      	movs	r2, #0
 8000c1a:	2180      	movs	r1, #128	@ 0x80
 8000c1c:	4806      	ldr	r0, [pc, #24]	@ (8000c38 <_Z7HWResetv+0x24>)
 8000c1e:	f001 fa71 	bl	8002104 <HAL_GPIO_WritePin>
	HAL_Delay(10);
 8000c22:	200a      	movs	r0, #10
 8000c24:	f000 fffa 	bl	8001c1c <HAL_Delay>
	HAL_GPIO_WritePin(RES_PORT, RES_PIN, GPIO_PIN_SET);
 8000c28:	2201      	movs	r2, #1
 8000c2a:	2180      	movs	r1, #128	@ 0x80
 8000c2c:	4802      	ldr	r0, [pc, #8]	@ (8000c38 <_Z7HWResetv+0x24>)
 8000c2e:	f001 fa69 	bl	8002104 <HAL_GPIO_WritePin>
}
 8000c32:	bf00      	nop
 8000c34:	bd80      	pop	{r7, pc}
 8000c36:	bf00      	nop
 8000c38:	48000400 	.word	0x48000400

08000c3c <_Z11DisplayInitP19__SPI_HandleTypeDef>:

void DisplayInit(SPI_HandleTypeDef *hspi){
 8000c3c:	b5b0      	push	{r4, r5, r7, lr}
 8000c3e:	b08c      	sub	sp, #48	@ 0x30
 8000c40:	af00      	add	r7, sp, #0
 8000c42:	6078      	str	r0, [r7, #4]
	DisplayHandle = hspi;
 8000c44:	4a33      	ldr	r2, [pc, #204]	@ (8000d14 <_Z11DisplayInitP19__SPI_HandleTypeDef+0xd8>)
 8000c46:	687b      	ldr	r3, [r7, #4]
 8000c48:	6013      	str	r3, [r2, #0]

	HWReset();
 8000c4a:	f7ff ffe3 	bl	8000c14 <_Z7HWResetv>
	HAL_GPIO_WritePin(CS_PORT, CS_PIN, GPIO_PIN_RESET);
 8000c4e:	2200      	movs	r2, #0
 8000c50:	2140      	movs	r1, #64	@ 0x40
 8000c52:	4831      	ldr	r0, [pc, #196]	@ (8000d18 <_Z11DisplayInitP19__SPI_HandleTypeDef+0xdc>)
 8000c54:	f001 fa56 	bl	8002104 <HAL_GPIO_WritePin>
	HAL_GPIO_WritePin(DC_PORT, DC_PIN, GPIO_PIN_RESET);
 8000c58:	2200      	movs	r2, #0
 8000c5a:	2101      	movs	r1, #1
 8000c5c:	482e      	ldr	r0, [pc, #184]	@ (8000d18 <_Z11DisplayInitP19__SPI_HandleTypeDef+0xdc>)
 8000c5e:	f001 fa51 	bl	8002104 <HAL_GPIO_WritePin>
	HAL_Delay(10);
 8000c62:	200a      	movs	r0, #10
 8000c64:	f000 ffda 	bl	8001c1c <HAL_Delay>
	unsigned char InitSequence[] = {
 8000c68:	4b2c      	ldr	r3, [pc, #176]	@ (8000d1c <_Z11DisplayInitP19__SPI_HandleTypeDef+0xe0>)
 8000c6a:	f107 040c 	add.w	r4, r7, #12
 8000c6e:	461d      	mov	r5, r3
 8000c70:	cd0f      	ldmia	r5!, {r0, r1, r2, r3}
 8000c72:	c40f      	stmia	r4!, {r0, r1, r2, r3}
 8000c74:	e895 0007 	ldmia.w	r5, {r0, r1, r2}
 8000c78:	c403      	stmia	r4!, {r0, r1}
 8000c7a:	8022      	strh	r2, [r4, #0]
	2, COLMOD, 0x05,
	2, MADCTL, 0b01100000,
	5, CASET, 0x00,0x00, 0x00, 0x9F,
	5, RASET, 0x00,0x00, 0x00, 0x7F,
	};
	unsigned char Instruction = 0;
 8000c7c:	2300      	movs	r3, #0
 8000c7e:	f887 302f 	strb.w	r3, [r7, #47]	@ 0x2f
	while(Instruction < sizeof(InitSequence)/sizeof(char)){
 8000c82:	e024      	b.n	8000cce <_Z11DisplayInitP19__SPI_HandleTypeDef+0x92>
	WriteCommand(InitSequence[Instruction + 1], &InitSequence[Instruction + 2], InitSequence[Instruction]-1);
 8000c84:	f897 302f 	ldrb.w	r3, [r7, #47]	@ 0x2f
 8000c88:	3301      	adds	r3, #1
 8000c8a:	3330      	adds	r3, #48	@ 0x30
 8000c8c:	443b      	add	r3, r7
 8000c8e:	f813 0c24 	ldrb.w	r0, [r3, #-36]
 8000c92:	f897 302f 	ldrb.w	r3, [r7, #47]	@ 0x2f
 8000c96:	3302      	adds	r3, #2
 8000c98:	f107 020c 	add.w	r2, r7, #12
 8000c9c:	18d1      	adds	r1, r2, r3
 8000c9e:	f897 302f 	ldrb.w	r3, [r7, #47]	@ 0x2f
 8000ca2:	3330      	adds	r3, #48	@ 0x30
 8000ca4:	443b      	add	r3, r7
 8000ca6:	f813 3c24 	ldrb.w	r3, [r3, #-36]
 8000caa:	3b01      	subs	r3, #1
 8000cac:	b2db      	uxtb	r3, r3
 8000cae:	461a      	mov	r2, r3
 8000cb0:	f7ff ff7a 	bl	8000ba8 <_Z12WriteCommandhPhh>
	Instruction += InitSequence[Instruction] + 1;
 8000cb4:	f897 302f 	ldrb.w	r3, [r7, #47]	@ 0x2f
 8000cb8:	3330      	adds	r3, #48	@ 0x30
 8000cba:	443b      	add	r3, r7
 8000cbc:	f813 2c24 	ldrb.w	r2, [r3, #-36]
 8000cc0:	f897 302f 	ldrb.w	r3, [r7, #47]	@ 0x2f
 8000cc4:	4413      	add	r3, r2
 8000cc6:	b2db      	uxtb	r3, r3
 8000cc8:	3301      	adds	r3, #1
 8000cca:	f887 302f 	strb.w	r3, [r7, #47]	@ 0x2f
	while(Instruction < sizeof(InitSequence)/sizeof(char)){
 8000cce:	f897 302f 	ldrb.w	r3, [r7, #47]	@ 0x2f
 8000cd2:	2b19      	cmp	r3, #25
 8000cd4:	d9d6      	bls.n	8000c84 <_Z11DisplayInitP19__SPI_HandleTypeDef+0x48>
	}
	WriteCommand(RAMWR);
 8000cd6:	2200      	movs	r2, #0
 8000cd8:	2100      	movs	r1, #0
 8000cda:	202c      	movs	r0, #44	@ 0x2c
 8000cdc:	f7ff ff64 	bl	8000ba8 <_Z12WriteCommandhPhh>
	for(int i = 0; i<D_WIDTH*D_HEIGHT; i++){
 8000ce0:	2300      	movs	r3, #0
 8000ce2:	62bb      	str	r3, [r7, #40]	@ 0x28
 8000ce4:	e00c      	b.n	8000d00 <_Z11DisplayInitP19__SPI_HandleTypeDef+0xc4>
		unsigned int data = 0b0000000000000000;
 8000ce6:	2300      	movs	r3, #0
 8000ce8:	60bb      	str	r3, [r7, #8]
		HAL_SPI_Transmit(DisplayHandle, (uint8_t*)&data, 2, 100);
 8000cea:	4b0a      	ldr	r3, [pc, #40]	@ (8000d14 <_Z11DisplayInitP19__SPI_HandleTypeDef+0xd8>)
 8000cec:	6818      	ldr	r0, [r3, #0]
 8000cee:	f107 0108 	add.w	r1, r7, #8
 8000cf2:	2364      	movs	r3, #100	@ 0x64
 8000cf4:	2202      	movs	r2, #2
 8000cf6:	f002 f924 	bl	8002f42 <HAL_SPI_Transmit>
	for(int i = 0; i<D_WIDTH*D_HEIGHT; i++){
 8000cfa:	6abb      	ldr	r3, [r7, #40]	@ 0x28
 8000cfc:	3301      	adds	r3, #1
 8000cfe:	62bb      	str	r3, [r7, #40]	@ 0x28
 8000d00:	6abb      	ldr	r3, [r7, #40]	@ 0x28
 8000d02:	f5b3 4fa0 	cmp.w	r3, #20480	@ 0x5000
 8000d06:	dbee      	blt.n	8000ce6 <_Z11DisplayInitP19__SPI_HandleTypeDef+0xaa>
	}

}
 8000d08:	bf00      	nop
 8000d0a:	bf00      	nop
 8000d0c:	3730      	adds	r7, #48	@ 0x30
 8000d0e:	46bd      	mov	sp, r7
 8000d10:	bdb0      	pop	{r4, r5, r7, pc}
 8000d12:	bf00      	nop
 8000d14:	2000c92c 	.word	0x2000c92c
 8000d18:	48000400 	.word	0x48000400
 8000d1c:	08004488 	.word	0x08004488

08000d20 <_Z7SetAddriiii>:

void SetAddr(int RowStart, int ColStart, int RowEnd = 0x9F, int ColEnd = 0x7F){
 8000d20:	b580      	push	{r7, lr}
 8000d22:	b086      	sub	sp, #24
 8000d24:	af02      	add	r7, sp, #8
 8000d26:	60f8      	str	r0, [r7, #12]
 8000d28:	60b9      	str	r1, [r7, #8]
 8000d2a:	607a      	str	r2, [r7, #4]
 8000d2c:	603b      	str	r3, [r7, #0]
    WriteCommandVargs(CASET, 0x00, RowStart, 0x00, RowEnd);
 8000d2e:	687b      	ldr	r3, [r7, #4]
 8000d30:	9300      	str	r3, [sp, #0]
 8000d32:	2300      	movs	r3, #0
 8000d34:	68fa      	ldr	r2, [r7, #12]
 8000d36:	2100      	movs	r1, #0
 8000d38:	202a      	movs	r0, #42	@ 0x2a
 8000d3a:	f000 fbe9 	bl	8001510 <_Z17WriteCommandVargsIiJiiiiEEvT_DpT0_>
    WriteCommandVargs(RASET, 0x00, ColStart, 0x00, ColEnd);
 8000d3e:	683b      	ldr	r3, [r7, #0]
 8000d40:	9300      	str	r3, [sp, #0]
 8000d42:	2300      	movs	r3, #0
 8000d44:	68ba      	ldr	r2, [r7, #8]
 8000d46:	2100      	movs	r1, #0
 8000d48:	202b      	movs	r0, #43	@ 0x2b
 8000d4a:	f000 fbe1 	bl	8001510 <_Z17WriteCommandVargsIiJiiiiEEvT_DpT0_>
}
 8000d4e:	bf00      	nop
 8000d50:	3710      	adds	r7, #16
 8000d52:	46bd      	mov	sp, r7
 8000d54:	bd80      	pop	{r7, pc}
	...

08000d58 <_Z9DrawPixeliiji>:

void DrawPixel(int x, int y, unsigned int Color, int thickness = 2){
 8000d58:	b580      	push	{r7, lr}
 8000d5a:	b088      	sub	sp, #32
 8000d5c:	af00      	add	r7, sp, #0
 8000d5e:	60f8      	str	r0, [r7, #12]
 8000d60:	60b9      	str	r1, [r7, #8]
 8000d62:	607a      	str	r2, [r7, #4]
 8000d64:	603b      	str	r3, [r7, #0]
    for(int Xoff = 0; Xoff < thickness; Xoff++){
 8000d66:	2300      	movs	r3, #0
 8000d68:	61fb      	str	r3, [r7, #28]
 8000d6a:	e02a      	b.n	8000dc2 <_Z9DrawPixeliiji+0x6a>
        for(int Yoff = 0; Yoff < thickness; Yoff++){
 8000d6c:	2300      	movs	r3, #0
 8000d6e:	61bb      	str	r3, [r7, #24]
 8000d70:	e020      	b.n	8000db4 <_Z9DrawPixeliiji+0x5c>
            SetAddr(x+Xoff,y+Yoff);
 8000d72:	68fa      	ldr	r2, [r7, #12]
 8000d74:	69fb      	ldr	r3, [r7, #28]
 8000d76:	18d0      	adds	r0, r2, r3
 8000d78:	68ba      	ldr	r2, [r7, #8]
 8000d7a:	69bb      	ldr	r3, [r7, #24]
 8000d7c:	18d1      	adds	r1, r2, r3
 8000d7e:	237f      	movs	r3, #127	@ 0x7f
 8000d80:	229f      	movs	r2, #159	@ 0x9f
 8000d82:	f7ff ffcd 	bl	8000d20 <_Z7SetAddriiii>
            WriteCommand(RAMWR);
 8000d86:	2200      	movs	r2, #0
 8000d88:	2100      	movs	r1, #0
 8000d8a:	202c      	movs	r0, #44	@ 0x2c
 8000d8c:	f7ff ff0c 	bl	8000ba8 <_Z12WriteCommandhPhh>
            uint8_t Transfer[] = {(Color & 0xFF00) >> 8,  Color & 0xFF};
 8000d90:	687b      	ldr	r3, [r7, #4]
 8000d92:	0a1b      	lsrs	r3, r3, #8
 8000d94:	b2db      	uxtb	r3, r3
 8000d96:	753b      	strb	r3, [r7, #20]
 8000d98:	687b      	ldr	r3, [r7, #4]
 8000d9a:	b2db      	uxtb	r3, r3
 8000d9c:	757b      	strb	r3, [r7, #21]
            HAL_SPI_Transmit(DisplayHandle, (uint8_t*)&Transfer, 2, 100);
 8000d9e:	4b0d      	ldr	r3, [pc, #52]	@ (8000dd4 <_Z9DrawPixeliiji+0x7c>)
 8000da0:	6818      	ldr	r0, [r3, #0]
 8000da2:	f107 0114 	add.w	r1, r7, #20
 8000da6:	2364      	movs	r3, #100	@ 0x64
 8000da8:	2202      	movs	r2, #2
 8000daa:	f002 f8ca 	bl	8002f42 <HAL_SPI_Transmit>
        for(int Yoff = 0; Yoff < thickness; Yoff++){
 8000dae:	69bb      	ldr	r3, [r7, #24]
 8000db0:	3301      	adds	r3, #1
 8000db2:	61bb      	str	r3, [r7, #24]
 8000db4:	69ba      	ldr	r2, [r7, #24]
 8000db6:	683b      	ldr	r3, [r7, #0]
 8000db8:	429a      	cmp	r2, r3
 8000dba:	dbda      	blt.n	8000d72 <_Z9DrawPixeliiji+0x1a>
    for(int Xoff = 0; Xoff < thickness; Xoff++){
 8000dbc:	69fb      	ldr	r3, [r7, #28]
 8000dbe:	3301      	adds	r3, #1
 8000dc0:	61fb      	str	r3, [r7, #28]
 8000dc2:	69fa      	ldr	r2, [r7, #28]
 8000dc4:	683b      	ldr	r3, [r7, #0]
 8000dc6:	429a      	cmp	r2, r3
 8000dc8:	dbd0      	blt.n	8000d6c <_Z9DrawPixeliiji+0x14>
        }
    }
}
 8000dca:	bf00      	nop
 8000dcc:	bf00      	nop
 8000dce:	3720      	adds	r7, #32
 8000dd0:	46bd      	mov	sp, r7
 8000dd2:	bd80      	pop	{r7, pc}
 8000dd4:	2000c92c 	.word	0x2000c92c

08000dd8 <_Z8DrawLineiiiij>:

void DrawLine(int StartX, int StartY, int EndX, int EndY, unsigned int Color){
 8000dd8:	b580      	push	{r7, lr}
 8000dda:	b08e      	sub	sp, #56	@ 0x38
 8000ddc:	af00      	add	r7, sp, #0
 8000dde:	60f8      	str	r0, [r7, #12]
 8000de0:	60b9      	str	r1, [r7, #8]
 8000de2:	607a      	str	r2, [r7, #4]
 8000de4:	603b      	str	r3, [r7, #0]
    if(( (abs(EndX - StartX) >= abs(EndY-StartY)) && (EndX < StartX) ) || ( ((abs(EndX - StartX) < abs(EndY-StartY)) && (EndY < StartY))) ){
 8000de6:	687a      	ldr	r2, [r7, #4]
 8000de8:	68fb      	ldr	r3, [r7, #12]
 8000dea:	1ad3      	subs	r3, r2, r3
 8000dec:	ea83 72e3 	eor.w	r2, r3, r3, asr #31
 8000df0:	eba2 72e3 	sub.w	r2, r2, r3, asr #31
 8000df4:	6839      	ldr	r1, [r7, #0]
 8000df6:	68bb      	ldr	r3, [r7, #8]
 8000df8:	1acb      	subs	r3, r1, r3
 8000dfa:	2b00      	cmp	r3, #0
 8000dfc:	bfb8      	it	lt
 8000dfe:	425b      	neglt	r3, r3
 8000e00:	429a      	cmp	r2, r3
 8000e02:	db03      	blt.n	8000e0c <_Z8DrawLineiiiij+0x34>
 8000e04:	687a      	ldr	r2, [r7, #4]
 8000e06:	68fb      	ldr	r3, [r7, #12]
 8000e08:	429a      	cmp	r2, r3
 8000e0a:	db12      	blt.n	8000e32 <_Z8DrawLineiiiij+0x5a>
 8000e0c:	687a      	ldr	r2, [r7, #4]
 8000e0e:	68fb      	ldr	r3, [r7, #12]
 8000e10:	1ad3      	subs	r3, r2, r3
 8000e12:	ea83 72e3 	eor.w	r2, r3, r3, asr #31
 8000e16:	eba2 72e3 	sub.w	r2, r2, r3, asr #31
 8000e1a:	6839      	ldr	r1, [r7, #0]
 8000e1c:	68bb      	ldr	r3, [r7, #8]
 8000e1e:	1acb      	subs	r3, r1, r3
 8000e20:	2b00      	cmp	r3, #0
 8000e22:	bfb8      	it	lt
 8000e24:	425b      	neglt	r3, r3
 8000e26:	429a      	cmp	r2, r3
 8000e28:	da11      	bge.n	8000e4e <_Z8DrawLineiiiij+0x76>
 8000e2a:	683a      	ldr	r2, [r7, #0]
 8000e2c:	68bb      	ldr	r3, [r7, #8]
 8000e2e:	429a      	cmp	r2, r3
 8000e30:	da0d      	bge.n	8000e4e <_Z8DrawLineiiiij+0x76>
      Swap<int>(StartX, EndX);
 8000e32:	1d3a      	adds	r2, r7, #4
 8000e34:	f107 030c 	add.w	r3, r7, #12
 8000e38:	4611      	mov	r1, r2
 8000e3a:	4618      	mov	r0, r3
 8000e3c:	f000 fb90 	bl	8001560 <_Z4SwapIiEvRT_S1_>
      Swap<int>(StartY, EndY);
 8000e40:	463a      	mov	r2, r7
 8000e42:	f107 0308 	add.w	r3, r7, #8
 8000e46:	4611      	mov	r1, r2
 8000e48:	4618      	mov	r0, r3
 8000e4a:	f000 fb89 	bl	8001560 <_Z4SwapIiEvRT_S1_>
    }
    int Cycles = max((EndX - StartX),(EndY - StartY));
 8000e4e:	683a      	ldr	r2, [r7, #0]
 8000e50:	68bb      	ldr	r3, [r7, #8]
 8000e52:	1ad3      	subs	r3, r2, r3
 8000e54:	ea83 72e3 	eor.w	r2, r3, r3, asr #31
 8000e58:	eba2 72e3 	sub.w	r2, r2, r3, asr #31
 8000e5c:	6879      	ldr	r1, [r7, #4]
 8000e5e:	68fb      	ldr	r3, [r7, #12]
 8000e60:	1acb      	subs	r3, r1, r3
 8000e62:	2b00      	cmp	r3, #0
 8000e64:	bfb8      	it	lt
 8000e66:	425b      	neglt	r3, r3
 8000e68:	4293      	cmp	r3, r2
 8000e6a:	bfb8      	it	lt
 8000e6c:	4613      	movlt	r3, r2
 8000e6e:	62bb      	str	r3, [r7, #40]	@ 0x28
    float Slope = 0;
 8000e70:	f04f 0300 	mov.w	r3, #0
 8000e74:	637b      	str	r3, [r7, #52]	@ 0x34
    int StartMapping[] = {StartX, StartY};
 8000e76:	68fb      	ldr	r3, [r7, #12]
 8000e78:	61fb      	str	r3, [r7, #28]
 8000e7a:	68bb      	ldr	r3, [r7, #8]
 8000e7c:	623b      	str	r3, [r7, #32]
    int CoordMapping[] = {0,0}, defau_map = 1;
 8000e7e:	2300      	movs	r3, #0
 8000e80:	617b      	str	r3, [r7, #20]
 8000e82:	2300      	movs	r3, #0
 8000e84:	61bb      	str	r3, [r7, #24]
 8000e86:	2301      	movs	r3, #1
 8000e88:	633b      	str	r3, [r7, #48]	@ 0x30

    if (abs(EndY - StartY) > abs(EndX - StartX)){ //if line is longer vertically rise > run
 8000e8a:	683a      	ldr	r2, [r7, #0]
 8000e8c:	68bb      	ldr	r3, [r7, #8]
 8000e8e:	1ad3      	subs	r3, r2, r3
 8000e90:	ea83 72e3 	eor.w	r2, r3, r3, asr #31
 8000e94:	eba2 72e3 	sub.w	r2, r2, r3, asr #31
 8000e98:	6879      	ldr	r1, [r7, #4]
 8000e9a:	68fb      	ldr	r3, [r7, #12]
 8000e9c:	1acb      	subs	r3, r1, r3
 8000e9e:	2b00      	cmp	r3, #0
 8000ea0:	bfb8      	it	lt
 8000ea2:	425b      	neglt	r3, r3
 8000ea4:	429a      	cmp	r2, r3
 8000ea6:	dd16      	ble.n	8000ed6 <_Z8DrawLineiiiij+0xfe>
        if (EndY-StartY != 0){
 8000ea8:	683a      	ldr	r2, [r7, #0]
 8000eaa:	68bb      	ldr	r3, [r7, #8]
 8000eac:	429a      	cmp	r2, r3
 8000eae:	d02a      	beq.n	8000f06 <_Z8DrawLineiiiij+0x12e>
            Slope = float((EndX - StartX))/(EndY-StartY);
 8000eb0:	687a      	ldr	r2, [r7, #4]
 8000eb2:	68fb      	ldr	r3, [r7, #12]
 8000eb4:	1ad3      	subs	r3, r2, r3
 8000eb6:	ee07 3a90 	vmov	s15, r3
 8000eba:	eef8 6ae7 	vcvt.f32.s32	s13, s15
 8000ebe:	683a      	ldr	r2, [r7, #0]
 8000ec0:	68bb      	ldr	r3, [r7, #8]
 8000ec2:	1ad3      	subs	r3, r2, r3
 8000ec4:	ee07 3a90 	vmov	s15, r3
 8000ec8:	eeb8 7ae7 	vcvt.f32.s32	s14, s15
 8000ecc:	eec6 7a87 	vdiv.f32	s15, s13, s14
 8000ed0:	edc7 7a0d 	vstr	s15, [r7, #52]	@ 0x34
 8000ed4:	e017      	b.n	8000f06 <_Z8DrawLineiiiij+0x12e>
        }
    }else{
        if (EndX - StartX != 0){
 8000ed6:	687a      	ldr	r2, [r7, #4]
 8000ed8:	68fb      	ldr	r3, [r7, #12]
 8000eda:	429a      	cmp	r2, r3
 8000edc:	d011      	beq.n	8000f02 <_Z8DrawLineiiiij+0x12a>
            Slope = float((EndY-StartY))/(EndX - StartX);
 8000ede:	683a      	ldr	r2, [r7, #0]
 8000ee0:	68bb      	ldr	r3, [r7, #8]
 8000ee2:	1ad3      	subs	r3, r2, r3
 8000ee4:	ee07 3a90 	vmov	s15, r3
 8000ee8:	eef8 6ae7 	vcvt.f32.s32	s13, s15
 8000eec:	687a      	ldr	r2, [r7, #4]
 8000eee:	68fb      	ldr	r3, [r7, #12]
 8000ef0:	1ad3      	subs	r3, r2, r3
 8000ef2:	ee07 3a90 	vmov	s15, r3
 8000ef6:	eeb8 7ae7 	vcvt.f32.s32	s14, s15
 8000efa:	eec6 7a87 	vdiv.f32	s15, s13, s14
 8000efe:	edc7 7a0d 	vstr	s15, [r7, #52]	@ 0x34
        }
        defau_map = 0;
 8000f02:	2300      	movs	r3, #0
 8000f04:	633b      	str	r3, [r7, #48]	@ 0x30
    }
    for(int i = 0; i <= Cycles; i++){
 8000f06:	2300      	movs	r3, #0
 8000f08:	62fb      	str	r3, [r7, #44]	@ 0x2c
 8000f0a:	e045      	b.n	8000f98 <_Z8DrawLineiiiij+0x1c0>
        int opp_map = 1 - defau_map;
 8000f0c:	6b3b      	ldr	r3, [r7, #48]	@ 0x30
 8000f0e:	f1c3 0301 	rsb	r3, r3, #1
 8000f12:	627b      	str	r3, [r7, #36]	@ 0x24
        CoordMapping[defau_map] = int(StartMapping[defau_map] + i); //default: CoordMapping[x,y] modified:CoordMapping[y,x]
 8000f14:	6b3b      	ldr	r3, [r7, #48]	@ 0x30
 8000f16:	009b      	lsls	r3, r3, #2
 8000f18:	3338      	adds	r3, #56	@ 0x38
 8000f1a:	443b      	add	r3, r7
 8000f1c:	f853 2c1c 	ldr.w	r2, [r3, #-28]
 8000f20:	6afb      	ldr	r3, [r7, #44]	@ 0x2c
 8000f22:	441a      	add	r2, r3
 8000f24:	6b3b      	ldr	r3, [r7, #48]	@ 0x30
 8000f26:	009b      	lsls	r3, r3, #2
 8000f28:	3338      	adds	r3, #56	@ 0x38
 8000f2a:	443b      	add	r3, r7
 8000f2c:	f843 2c24 	str.w	r2, [r3, #-36]
        CoordMapping[opp_map] = int(StartMapping[opp_map] + i*Slope);
 8000f30:	6a7b      	ldr	r3, [r7, #36]	@ 0x24
 8000f32:	009b      	lsls	r3, r3, #2
 8000f34:	3338      	adds	r3, #56	@ 0x38
 8000f36:	443b      	add	r3, r7
 8000f38:	f853 3c1c 	ldr.w	r3, [r3, #-28]
 8000f3c:	ee07 3a90 	vmov	s15, r3
 8000f40:	eeb8 7ae7 	vcvt.f32.s32	s14, s15
 8000f44:	6afb      	ldr	r3, [r7, #44]	@ 0x2c
 8000f46:	ee07 3a90 	vmov	s15, r3
 8000f4a:	eef8 6ae7 	vcvt.f32.s32	s13, s15
 8000f4e:	edd7 7a0d 	vldr	s15, [r7, #52]	@ 0x34
 8000f52:	ee66 7aa7 	vmul.f32	s15, s13, s15
 8000f56:	ee77 7a27 	vadd.f32	s15, s14, s15
 8000f5a:	eefd 7ae7 	vcvt.s32.f32	s15, s15
 8000f5e:	ee17 2a90 	vmov	r2, s15
 8000f62:	6a7b      	ldr	r3, [r7, #36]	@ 0x24
 8000f64:	009b      	lsls	r3, r3, #2
 8000f66:	3338      	adds	r3, #56	@ 0x38
 8000f68:	443b      	add	r3, r7
 8000f6a:	f843 2c24 	str.w	r2, [r3, #-36]

        if(CoordMapping[0] >= 0 && CoordMapping[0] < 160 && CoordMapping[1] >= 0 && CoordMapping[1] < 128)
 8000f6e:	697b      	ldr	r3, [r7, #20]
 8000f70:	2b00      	cmp	r3, #0
 8000f72:	db0e      	blt.n	8000f92 <_Z8DrawLineiiiij+0x1ba>
 8000f74:	697b      	ldr	r3, [r7, #20]
 8000f76:	2b9f      	cmp	r3, #159	@ 0x9f
 8000f78:	dc0b      	bgt.n	8000f92 <_Z8DrawLineiiiij+0x1ba>
 8000f7a:	69bb      	ldr	r3, [r7, #24]
 8000f7c:	2b00      	cmp	r3, #0
 8000f7e:	db08      	blt.n	8000f92 <_Z8DrawLineiiiij+0x1ba>
 8000f80:	69bb      	ldr	r3, [r7, #24]
 8000f82:	2b7f      	cmp	r3, #127	@ 0x7f
 8000f84:	dc05      	bgt.n	8000f92 <_Z8DrawLineiiiij+0x1ba>
        DrawPixel(CoordMapping[0], CoordMapping[1], Color);
 8000f86:	6978      	ldr	r0, [r7, #20]
 8000f88:	69b9      	ldr	r1, [r7, #24]
 8000f8a:	2302      	movs	r3, #2
 8000f8c:	6c3a      	ldr	r2, [r7, #64]	@ 0x40
 8000f8e:	f7ff fee3 	bl	8000d58 <_Z9DrawPixeliiji>
    for(int i = 0; i <= Cycles; i++){
 8000f92:	6afb      	ldr	r3, [r7, #44]	@ 0x2c
 8000f94:	3301      	adds	r3, #1
 8000f96:	62fb      	str	r3, [r7, #44]	@ 0x2c
 8000f98:	6afa      	ldr	r2, [r7, #44]	@ 0x2c
 8000f9a:	6abb      	ldr	r3, [r7, #40]	@ 0x28
 8000f9c:	429a      	cmp	r2, r3
 8000f9e:	ddb5      	ble.n	8000f0c <_Z8DrawLineiiiij+0x134>
    }
}
 8000fa0:	bf00      	nop
 8000fa2:	bf00      	nop
 8000fa4:	3738      	adds	r7, #56	@ 0x38
 8000fa6:	46bd      	mov	sp, r7
 8000fa8:	bd80      	pop	{r7, pc}
	...

08000fac <_Z11DrawEllipseiiiiii>:
    DrawLine(StartX, StartY, StartX, EndY, Color);
    DrawLine(StartX, EndY, EndX,EndY, Color);
    DrawLine(EndX, StartY, EndX, EndY, Color);
}

void DrawEllipse(int StartX, int StartY, int EndX, int EndY, int Color, int mapping){
 8000fac:	b5b0      	push	{r4, r5, r7, lr}
 8000fae:	ed2d 8b02 	vpush	{d8}
 8000fb2:	b09e      	sub	sp, #120	@ 0x78
 8000fb4:	af02      	add	r7, sp, #8
 8000fb6:	60f8      	str	r0, [r7, #12]
 8000fb8:	60b9      	str	r1, [r7, #8]
 8000fba:	607a      	str	r2, [r7, #4]
 8000fbc:	603b      	str	r3, [r7, #0]
    if((abs(EndX - StartX) >= abs(EndY-StartY) && EndX < StartX) || (abs(EndX - StartX) < abs(EndY-StartY) && EndY < StartY)){
 8000fbe:	687a      	ldr	r2, [r7, #4]
 8000fc0:	68fb      	ldr	r3, [r7, #12]
 8000fc2:	1ad3      	subs	r3, r2, r3
 8000fc4:	ea83 72e3 	eor.w	r2, r3, r3, asr #31
 8000fc8:	eba2 72e3 	sub.w	r2, r2, r3, asr #31
 8000fcc:	6839      	ldr	r1, [r7, #0]
 8000fce:	68bb      	ldr	r3, [r7, #8]
 8000fd0:	1acb      	subs	r3, r1, r3
 8000fd2:	2b00      	cmp	r3, #0
 8000fd4:	bfb8      	it	lt
 8000fd6:	425b      	neglt	r3, r3
 8000fd8:	429a      	cmp	r2, r3
 8000fda:	db03      	blt.n	8000fe4 <_Z11DrawEllipseiiiiii+0x38>
 8000fdc:	687a      	ldr	r2, [r7, #4]
 8000fde:	68fb      	ldr	r3, [r7, #12]
 8000fe0:	429a      	cmp	r2, r3
 8000fe2:	db12      	blt.n	800100a <_Z11DrawEllipseiiiiii+0x5e>
 8000fe4:	687a      	ldr	r2, [r7, #4]
 8000fe6:	68fb      	ldr	r3, [r7, #12]
 8000fe8:	1ad3      	subs	r3, r2, r3
 8000fea:	ea83 72e3 	eor.w	r2, r3, r3, asr #31
 8000fee:	eba2 72e3 	sub.w	r2, r2, r3, asr #31
 8000ff2:	6839      	ldr	r1, [r7, #0]
 8000ff4:	68bb      	ldr	r3, [r7, #8]
 8000ff6:	1acb      	subs	r3, r1, r3
 8000ff8:	2b00      	cmp	r3, #0
 8000ffa:	bfb8      	it	lt
 8000ffc:	425b      	neglt	r3, r3
 8000ffe:	429a      	cmp	r2, r3
 8001000:	da11      	bge.n	8001026 <_Z11DrawEllipseiiiiii+0x7a>
 8001002:	683a      	ldr	r2, [r7, #0]
 8001004:	68bb      	ldr	r3, [r7, #8]
 8001006:	429a      	cmp	r2, r3
 8001008:	da0d      	bge.n	8001026 <_Z11DrawEllipseiiiiii+0x7a>
        Swap<int>(StartX, EndX);
 800100a:	1d3a      	adds	r2, r7, #4
 800100c:	f107 030c 	add.w	r3, r7, #12
 8001010:	4611      	mov	r1, r2
 8001012:	4618      	mov	r0, r3
 8001014:	f000 faa4 	bl	8001560 <_Z4SwapIiEvRT_S1_>
        Swap<int>(StartY, EndY);
 8001018:	463a      	mov	r2, r7
 800101a:	f107 0308 	add.w	r3, r7, #8
 800101e:	4611      	mov	r1, r2
 8001020:	4618      	mov	r0, r3
 8001022:	f000 fa9d 	bl	8001560 <_Z4SwapIiEvRT_S1_>
    }
    int Cycles[2] = {(EndX - StartX),(EndY - StartY)};
 8001026:	687a      	ldr	r2, [r7, #4]
 8001028:	68fb      	ldr	r3, [r7, #12]
 800102a:	1ad3      	subs	r3, r2, r3
 800102c:	647b      	str	r3, [r7, #68]	@ 0x44
 800102e:	683a      	ldr	r2, [r7, #0]
 8001030:	68bb      	ldr	r3, [r7, #8]
 8001032:	1ad3      	subs	r3, r2, r3
 8001034:	64bb      	str	r3, [r7, #72]	@ 0x48
    int Center[2] = {(StartX+EndX)/2,(StartY+EndY)/2};
 8001036:	68fa      	ldr	r2, [r7, #12]
 8001038:	687b      	ldr	r3, [r7, #4]
 800103a:	4413      	add	r3, r2
 800103c:	0fda      	lsrs	r2, r3, #31
 800103e:	4413      	add	r3, r2
 8001040:	105b      	asrs	r3, r3, #1
 8001042:	63fb      	str	r3, [r7, #60]	@ 0x3c
 8001044:	68ba      	ldr	r2, [r7, #8]
 8001046:	683b      	ldr	r3, [r7, #0]
 8001048:	4413      	add	r3, r2
 800104a:	0fda      	lsrs	r2, r3, #31
 800104c:	4413      	add	r3, r2
 800104e:	105b      	asrs	r3, r3, #1
 8001050:	643b      	str	r3, [r7, #64]	@ 0x40
    int Offset[2] = {abs(StartX-EndX)/2,abs(StartY-EndY)/2};
 8001052:	68fa      	ldr	r2, [r7, #12]
 8001054:	687b      	ldr	r3, [r7, #4]
 8001056:	1ad3      	subs	r3, r2, r3
 8001058:	2b00      	cmp	r3, #0
 800105a:	bfb8      	it	lt
 800105c:	425b      	neglt	r3, r3
 800105e:	0fda      	lsrs	r2, r3, #31
 8001060:	4413      	add	r3, r2
 8001062:	105b      	asrs	r3, r3, #1
 8001064:	637b      	str	r3, [r7, #52]	@ 0x34
 8001066:	68ba      	ldr	r2, [r7, #8]
 8001068:	683b      	ldr	r3, [r7, #0]
 800106a:	1ad3      	subs	r3, r2, r3
 800106c:	2b00      	cmp	r3, #0
 800106e:	bfb8      	it	lt
 8001070:	425b      	neglt	r3, r3
 8001072:	0fda      	lsrs	r2, r3, #31
 8001074:	4413      	add	r3, r2
 8001076:	105b      	asrs	r3, r3, #1
 8001078:	63bb      	str	r3, [r7, #56]	@ 0x38
    int VertexA = abs(EndX-StartX)/2, VertexB = abs(EndY-StartY)/2;
 800107a:	687a      	ldr	r2, [r7, #4]
 800107c:	68fb      	ldr	r3, [r7, #12]
 800107e:	1ad3      	subs	r3, r2, r3
 8001080:	2b00      	cmp	r3, #0
 8001082:	bfb8      	it	lt
 8001084:	425b      	neglt	r3, r3
 8001086:	0fda      	lsrs	r2, r3, #31
 8001088:	4413      	add	r3, r2
 800108a:	105b      	asrs	r3, r3, #1
 800108c:	663b      	str	r3, [r7, #96]	@ 0x60
 800108e:	683a      	ldr	r2, [r7, #0]
 8001090:	68bb      	ldr	r3, [r7, #8]
 8001092:	1ad3      	subs	r3, r2, r3
 8001094:	2b00      	cmp	r3, #0
 8001096:	bfb8      	it	lt
 8001098:	425b      	neglt	r3, r3
 800109a:	0fda      	lsrs	r2, r3, #31
 800109c:	4413      	add	r3, r2
 800109e:	105b      	asrs	r3, r3, #1
 80010a0:	65fb      	str	r3, [r7, #92]	@ 0x5c
    int Verticies[2] = {VertexA, VertexB};
 80010a2:	6e3b      	ldr	r3, [r7, #96]	@ 0x60
 80010a4:	62fb      	str	r3, [r7, #44]	@ 0x2c
 80010a6:	6dfb      	ldr	r3, [r7, #92]	@ 0x5c
 80010a8:	633b      	str	r3, [r7, #48]	@ 0x30
    int CoordMapping[2] = {0,0}, defau_map = 0;
 80010aa:	2300      	movs	r3, #0
 80010ac:	627b      	str	r3, [r7, #36]	@ 0x24
 80010ae:	2300      	movs	r3, #0
 80010b0:	62bb      	str	r3, [r7, #40]	@ 0x28
 80010b2:	2300      	movs	r3, #0
 80010b4:	66fb      	str	r3, [r7, #108]	@ 0x6c
    if (abs(EndY - StartY) > abs(EndX - StartX)){ //if line is longer vertically rise > run
 80010b6:	683a      	ldr	r2, [r7, #0]
 80010b8:	68bb      	ldr	r3, [r7, #8]
 80010ba:	1ad3      	subs	r3, r2, r3
 80010bc:	ea83 72e3 	eor.w	r2, r3, r3, asr #31
 80010c0:	eba2 72e3 	sub.w	r2, r2, r3, asr #31
 80010c4:	6879      	ldr	r1, [r7, #4]
 80010c6:	68fb      	ldr	r3, [r7, #12]
 80010c8:	1acb      	subs	r3, r1, r3
 80010ca:	2b00      	cmp	r3, #0
 80010cc:	bfb8      	it	lt
 80010ce:	425b      	neglt	r3, r3
 80010d0:	429a      	cmp	r2, r3
 80010d2:	dd01      	ble.n	80010d8 <_Z11DrawEllipseiiiiii+0x12c>
        defau_map = 1;
 80010d4:	2301      	movs	r3, #1
 80010d6:	66fb      	str	r3, [r7, #108]	@ 0x6c
    }
    if(mapping != -1){
 80010d8:	f8d7 308c 	ldr.w	r3, [r7, #140]	@ 0x8c
 80010dc:	f1b3 3fff 	cmp.w	r3, #4294967295
 80010e0:	d003      	beq.n	80010ea <_Z11DrawEllipseiiiiii+0x13e>
        defau_map = mapping;
 80010e2:	f8d7 308c 	ldr.w	r3, [r7, #140]	@ 0x8c
 80010e6:	66fb      	str	r3, [r7, #108]	@ 0x6c
 80010e8:	e00d      	b.n	8001106 <_Z11DrawEllipseiiiiii+0x15a>
    }else{
        DrawEllipse(StartX, StartY, EndX, EndY, Color, 1 - defau_map);
 80010ea:	68f8      	ldr	r0, [r7, #12]
 80010ec:	68b9      	ldr	r1, [r7, #8]
 80010ee:	687a      	ldr	r2, [r7, #4]
 80010f0:	683c      	ldr	r4, [r7, #0]
 80010f2:	6efb      	ldr	r3, [r7, #108]	@ 0x6c
 80010f4:	f1c3 0301 	rsb	r3, r3, #1
 80010f8:	9301      	str	r3, [sp, #4]
 80010fa:	f8d7 3088 	ldr.w	r3, [r7, #136]	@ 0x88
 80010fe:	9300      	str	r3, [sp, #0]
 8001100:	4623      	mov	r3, r4
 8001102:	f7ff ff53 	bl	8000fac <_Z11DrawEllipseiiiiii>
    }
    int opp_map = 1 - defau_map;
 8001106:	6efb      	ldr	r3, [r7, #108]	@ 0x6c
 8001108:	f1c3 0301 	rsb	r3, r3, #1
 800110c:	65bb      	str	r3, [r7, #88]	@ 0x58
    for(int i = 0; i <= Cycles[defau_map]; i++){
 800110e:	2300      	movs	r3, #0
 8001110:	66bb      	str	r3, [r7, #104]	@ 0x68
 8001112:	e0ec      	b.n	80012ee <_Z11DrawEllipseiiiiii+0x342>
        CoordMapping[defau_map] = int(i); //default: CoordMapping[x,y] modified:CoordMapping[y,x]
 8001114:	6efb      	ldr	r3, [r7, #108]	@ 0x6c
 8001116:	009b      	lsls	r3, r3, #2
 8001118:	3370      	adds	r3, #112	@ 0x70
 800111a:	443b      	add	r3, r7
 800111c:	6eba      	ldr	r2, [r7, #104]	@ 0x68
 800111e:	f843 2c4c 	str.w	r2, [r3, #-76]
        int X = CoordMapping[defau_map];
 8001122:	6efb      	ldr	r3, [r7, #108]	@ 0x6c
 8001124:	009b      	lsls	r3, r3, #2
 8001126:	3370      	adds	r3, #112	@ 0x70
 8001128:	443b      	add	r3, r7
 800112a:	f853 3c4c 	ldr.w	r3, [r3, #-76]
 800112e:	657b      	str	r3, [r7, #84]	@ 0x54
        CoordMapping[opp_map] = sqrt(((1.0 - float( pow(X-Verticies[defau_map],2)) /(  float(pow(Verticies[defau_map],2)) ))) * pow(float(Verticies[opp_map]),2));
 8001130:	6efb      	ldr	r3, [r7, #108]	@ 0x6c
 8001132:	009b      	lsls	r3, r3, #2
 8001134:	3370      	adds	r3, #112	@ 0x70
 8001136:	443b      	add	r3, r7
 8001138:	f853 3c44 	ldr.w	r3, [r3, #-68]
 800113c:	6d7a      	ldr	r2, [r7, #84]	@ 0x54
 800113e:	1ad3      	subs	r3, r2, r3
 8001140:	2102      	movs	r1, #2
 8001142:	4618      	mov	r0, r3
 8001144:	f000 fa21 	bl	800158a <_ZSt3powIiiEN9__gnu_cxx11__promote_2IT_T0_NS0_9__promoteIS2_XsrSt12__is_integerIS2_E7__valueEE6__typeENS4_IS3_XsrS5_IS3_E7__valueEE6__typeEE6__typeES2_S3_>
 8001148:	ec53 2b10 	vmov	r2, r3, d0
 800114c:	4610      	mov	r0, r2
 800114e:	4619      	mov	r1, r3
 8001150:	f7ff fcd2 	bl	8000af8 <__aeabi_d2f>
 8001154:	ee08 0a10 	vmov	s16, r0
 8001158:	6efb      	ldr	r3, [r7, #108]	@ 0x6c
 800115a:	009b      	lsls	r3, r3, #2
 800115c:	3370      	adds	r3, #112	@ 0x70
 800115e:	443b      	add	r3, r7
 8001160:	f853 3c44 	ldr.w	r3, [r3, #-68]
 8001164:	2102      	movs	r1, #2
 8001166:	4618      	mov	r0, r3
 8001168:	f000 fa0f 	bl	800158a <_ZSt3powIiiEN9__gnu_cxx11__promote_2IT_T0_NS0_9__promoteIS2_XsrSt12__is_integerIS2_E7__valueEE6__typeENS4_IS3_XsrS5_IS3_E7__valueEE6__typeEE6__typeES2_S3_>
 800116c:	ec53 2b10 	vmov	r2, r3, d0
 8001170:	4610      	mov	r0, r2
 8001172:	4619      	mov	r1, r3
 8001174:	f7ff fcc0 	bl	8000af8 <__aeabi_d2f>
 8001178:	ee07 0a10 	vmov	s14, r0
 800117c:	eec8 7a07 	vdiv.f32	s15, s16, s14
 8001180:	ee17 0a90 	vmov	r0, s15
 8001184:	f7ff f988 	bl	8000498 <__aeabi_f2d>
 8001188:	4602      	mov	r2, r0
 800118a:	460b      	mov	r3, r1
 800118c:	f04f 0000 	mov.w	r0, #0
 8001190:	495f      	ldr	r1, [pc, #380]	@ (8001310 <_Z11DrawEllipseiiiiii+0x364>)
 8001192:	f7ff f821 	bl	80001d8 <__aeabi_dsub>
 8001196:	4602      	mov	r2, r0
 8001198:	460b      	mov	r3, r1
 800119a:	4614      	mov	r4, r2
 800119c:	461d      	mov	r5, r3
 800119e:	6dbb      	ldr	r3, [r7, #88]	@ 0x58
 80011a0:	009b      	lsls	r3, r3, #2
 80011a2:	3370      	adds	r3, #112	@ 0x70
 80011a4:	443b      	add	r3, r7
 80011a6:	f853 3c44 	ldr.w	r3, [r3, #-68]
 80011aa:	ee07 3a90 	vmov	s15, r3
 80011ae:	eef8 7ae7 	vcvt.f32.s32	s15, s15
 80011b2:	2002      	movs	r0, #2
 80011b4:	eeb0 0a67 	vmov.f32	s0, s15
 80011b8:	f000 fa07 	bl	80015ca <_ZSt3powIfiEN9__gnu_cxx11__promote_2IT_T0_NS0_9__promoteIS2_XsrSt12__is_integerIS2_E7__valueEE6__typeENS4_IS3_XsrS5_IS3_E7__valueEE6__typeEE6__typeES2_S3_>
 80011bc:	ec53 2b10 	vmov	r2, r3, d0
 80011c0:	4620      	mov	r0, r4
 80011c2:	4629      	mov	r1, r5
 80011c4:	f7ff f9c0 	bl	8000548 <__aeabi_dmul>
 80011c8:	4602      	mov	r2, r0
 80011ca:	460b      	mov	r3, r1
 80011cc:	ec43 2b17 	vmov	d7, r2, r3
 80011d0:	eeb0 0a47 	vmov.f32	s0, s14
 80011d4:	eef0 0a67 	vmov.f32	s1, s15
 80011d8:	f002 f9fc 	bl	80035d4 <sqrt>
 80011dc:	ec53 2b10 	vmov	r2, r3, d0
 80011e0:	4610      	mov	r0, r2
 80011e2:	4619      	mov	r1, r3
 80011e4:	f7ff fc60 	bl	8000aa8 <__aeabi_d2iz>
 80011e8:	4602      	mov	r2, r0
 80011ea:	6dbb      	ldr	r3, [r7, #88]	@ 0x58
 80011ec:	009b      	lsls	r3, r3, #2
 80011ee:	3370      	adds	r3, #112	@ 0x70
 80011f0:	443b      	add	r3, r7
 80011f2:	f843 2c4c 	str.w	r2, [r3, #-76]

        for(int j = 1; j > -2; j-=2){
 80011f6:	2301      	movs	r3, #1
 80011f8:	667b      	str	r3, [r7, #100]	@ 0x64
 80011fa:	e071      	b.n	80012e0 <_Z11DrawEllipseiiiiii+0x334>
            int OffsetMapping[2] = {0, 0};
 80011fc:	2300      	movs	r3, #0
 80011fe:	61fb      	str	r3, [r7, #28]
 8001200:	2300      	movs	r3, #0
 8001202:	623b      	str	r3, [r7, #32]
            OffsetMapping[defau_map] = -Offset[defau_map];
 8001204:	6efb      	ldr	r3, [r7, #108]	@ 0x6c
 8001206:	009b      	lsls	r3, r3, #2
 8001208:	3370      	adds	r3, #112	@ 0x70
 800120a:	443b      	add	r3, r7
 800120c:	f853 3c3c 	ldr.w	r3, [r3, #-60]
 8001210:	425a      	negs	r2, r3
 8001212:	6efb      	ldr	r3, [r7, #108]	@ 0x6c
 8001214:	009b      	lsls	r3, r3, #2
 8001216:	3370      	adds	r3, #112	@ 0x70
 8001218:	443b      	add	r3, r7
 800121a:	f843 2c54 	str.w	r2, [r3, #-84]
            int OutputMapping[] = {0,0};
 800121e:	2300      	movs	r3, #0
 8001220:	617b      	str	r3, [r7, #20]
 8001222:	2300      	movs	r3, #0
 8001224:	61bb      	str	r3, [r7, #24]
            CoordMapping[opp_map] *= j;
 8001226:	6dbb      	ldr	r3, [r7, #88]	@ 0x58
 8001228:	009b      	lsls	r3, r3, #2
 800122a:	3370      	adds	r3, #112	@ 0x70
 800122c:	443b      	add	r3, r7
 800122e:	f853 3c4c 	ldr.w	r3, [r3, #-76]
 8001232:	6e7a      	ldr	r2, [r7, #100]	@ 0x64
 8001234:	fb03 f202 	mul.w	r2, r3, r2
 8001238:	6dbb      	ldr	r3, [r7, #88]	@ 0x58
 800123a:	009b      	lsls	r3, r3, #2
 800123c:	3370      	adds	r3, #112	@ 0x70
 800123e:	443b      	add	r3, r7
 8001240:	f843 2c4c 	str.w	r2, [r3, #-76]
            OutputMapping[defau_map] = Center[defau_map] + CoordMapping[defau_map] + OffsetMapping[defau_map];
 8001244:	6efb      	ldr	r3, [r7, #108]	@ 0x6c
 8001246:	009b      	lsls	r3, r3, #2
 8001248:	3370      	adds	r3, #112	@ 0x70
 800124a:	443b      	add	r3, r7
 800124c:	f853 2c34 	ldr.w	r2, [r3, #-52]
 8001250:	6efb      	ldr	r3, [r7, #108]	@ 0x6c
 8001252:	009b      	lsls	r3, r3, #2
 8001254:	3370      	adds	r3, #112	@ 0x70
 8001256:	443b      	add	r3, r7
 8001258:	f853 3c4c 	ldr.w	r3, [r3, #-76]
 800125c:	441a      	add	r2, r3
 800125e:	6efb      	ldr	r3, [r7, #108]	@ 0x6c
 8001260:	009b      	lsls	r3, r3, #2
 8001262:	3370      	adds	r3, #112	@ 0x70
 8001264:	443b      	add	r3, r7
 8001266:	f853 3c54 	ldr.w	r3, [r3, #-84]
 800126a:	441a      	add	r2, r3
 800126c:	6efb      	ldr	r3, [r7, #108]	@ 0x6c
 800126e:	009b      	lsls	r3, r3, #2
 8001270:	3370      	adds	r3, #112	@ 0x70
 8001272:	443b      	add	r3, r7
 8001274:	f843 2c5c 	str.w	r2, [r3, #-92]
            OutputMapping[opp_map] = Center[opp_map] + CoordMapping[opp_map] + OffsetMapping[opp_map];
 8001278:	6dbb      	ldr	r3, [r7, #88]	@ 0x58
 800127a:	009b      	lsls	r3, r3, #2
 800127c:	3370      	adds	r3, #112	@ 0x70
 800127e:	443b      	add	r3, r7
 8001280:	f853 2c34 	ldr.w	r2, [r3, #-52]
 8001284:	6dbb      	ldr	r3, [r7, #88]	@ 0x58
 8001286:	009b      	lsls	r3, r3, #2
 8001288:	3370      	adds	r3, #112	@ 0x70
 800128a:	443b      	add	r3, r7
 800128c:	f853 3c4c 	ldr.w	r3, [r3, #-76]
 8001290:	441a      	add	r2, r3
 8001292:	6dbb      	ldr	r3, [r7, #88]	@ 0x58
 8001294:	009b      	lsls	r3, r3, #2
 8001296:	3370      	adds	r3, #112	@ 0x70
 8001298:	443b      	add	r3, r7
 800129a:	f853 3c54 	ldr.w	r3, [r3, #-84]
 800129e:	441a      	add	r2, r3
 80012a0:	6dbb      	ldr	r3, [r7, #88]	@ 0x58
 80012a2:	009b      	lsls	r3, r3, #2
 80012a4:	3370      	adds	r3, #112	@ 0x70
 80012a6:	443b      	add	r3, r7
 80012a8:	f843 2c5c 	str.w	r2, [r3, #-92]
            int XCoord = OutputMapping[0], YCoord = OutputMapping[1];
 80012ac:	697b      	ldr	r3, [r7, #20]
 80012ae:	653b      	str	r3, [r7, #80]	@ 0x50
 80012b0:	69bb      	ldr	r3, [r7, #24]
 80012b2:	64fb      	str	r3, [r7, #76]	@ 0x4c
            if(XCoord >= 0 && XCoord < 160 && YCoord >= 0 && YCoord < 128)
 80012b4:	6d3b      	ldr	r3, [r7, #80]	@ 0x50
 80012b6:	2b00      	cmp	r3, #0
 80012b8:	db0f      	blt.n	80012da <_Z11DrawEllipseiiiiii+0x32e>
 80012ba:	6d3b      	ldr	r3, [r7, #80]	@ 0x50
 80012bc:	2b9f      	cmp	r3, #159	@ 0x9f
 80012be:	dc0c      	bgt.n	80012da <_Z11DrawEllipseiiiiii+0x32e>
 80012c0:	6cfb      	ldr	r3, [r7, #76]	@ 0x4c
 80012c2:	2b00      	cmp	r3, #0
 80012c4:	db09      	blt.n	80012da <_Z11DrawEllipseiiiiii+0x32e>
 80012c6:	6cfb      	ldr	r3, [r7, #76]	@ 0x4c
 80012c8:	2b7f      	cmp	r3, #127	@ 0x7f
 80012ca:	dc06      	bgt.n	80012da <_Z11DrawEllipseiiiiii+0x32e>
              DrawPixel(XCoord, YCoord, Color, 2);
 80012cc:	f8d7 2088 	ldr.w	r2, [r7, #136]	@ 0x88
 80012d0:	2302      	movs	r3, #2
 80012d2:	6cf9      	ldr	r1, [r7, #76]	@ 0x4c
 80012d4:	6d38      	ldr	r0, [r7, #80]	@ 0x50
 80012d6:	f7ff fd3f 	bl	8000d58 <_Z9DrawPixeliiji>
        for(int j = 1; j > -2; j-=2){
 80012da:	6e7b      	ldr	r3, [r7, #100]	@ 0x64
 80012dc:	3b02      	subs	r3, #2
 80012de:	667b      	str	r3, [r7, #100]	@ 0x64
 80012e0:	6e7b      	ldr	r3, [r7, #100]	@ 0x64
 80012e2:	f1b3 3fff 	cmp.w	r3, #4294967295
 80012e6:	da89      	bge.n	80011fc <_Z11DrawEllipseiiiiii+0x250>
    for(int i = 0; i <= Cycles[defau_map]; i++){
 80012e8:	6ebb      	ldr	r3, [r7, #104]	@ 0x68
 80012ea:	3301      	adds	r3, #1
 80012ec:	66bb      	str	r3, [r7, #104]	@ 0x68
 80012ee:	6efb      	ldr	r3, [r7, #108]	@ 0x6c
 80012f0:	009b      	lsls	r3, r3, #2
 80012f2:	3370      	adds	r3, #112	@ 0x70
 80012f4:	443b      	add	r3, r7
 80012f6:	f853 3c2c 	ldr.w	r3, [r3, #-44]
 80012fa:	6eba      	ldr	r2, [r7, #104]	@ 0x68
 80012fc:	429a      	cmp	r2, r3
 80012fe:	f77f af09 	ble.w	8001114 <_Z11DrawEllipseiiiiii+0x168>
        }
    }
}
 8001302:	bf00      	nop
 8001304:	bf00      	nop
 8001306:	3770      	adds	r7, #112	@ 0x70
 8001308:	46bd      	mov	sp, r7
 800130a:	ecbd 8b02 	vpop	{d8}
 800130e:	bdb0      	pop	{r4, r5, r7, pc}
 8001310:	3ff00000 	.word	0x3ff00000

08001314 <_Z13DrawCharactercii>:

void DrawCharacter(char Character, int StartX, int StartY){
 8001314:	b580      	push	{r7, lr}
 8001316:	b086      	sub	sp, #24
 8001318:	af00      	add	r7, sp, #0
 800131a:	4603      	mov	r3, r0
 800131c:	60b9      	str	r1, [r7, #8]
 800131e:	607a      	str	r2, [r7, #4]
 8001320:	73fb      	strb	r3, [r7, #15]
	SetAddr(StartX, StartY, StartX + 9, StartY + 9);
 8001322:	68bb      	ldr	r3, [r7, #8]
 8001324:	f103 0209 	add.w	r2, r3, #9
 8001328:	687b      	ldr	r3, [r7, #4]
 800132a:	3309      	adds	r3, #9
 800132c:	6879      	ldr	r1, [r7, #4]
 800132e:	68b8      	ldr	r0, [r7, #8]
 8001330:	f7ff fcf6 	bl	8000d20 <_Z7SetAddriiii>
	WriteCommand(RAMWR);
 8001334:	2200      	movs	r2, #0
 8001336:	2100      	movs	r1, #0
 8001338:	202c      	movs	r0, #44	@ 0x2c
 800133a:	f7ff fc35 	bl	8000ba8 <_Z12WriteCommandhPhh>
	for(int i = 0; i < 100; i++){
 800133e:	2300      	movs	r3, #0
 8001340:	617b      	str	r3, [r7, #20]
 8001342:	e01b      	b.n	800137c <_Z13DrawCharactercii+0x68>
		uint16_t data = 0xffff;
 8001344:	f64f 73ff 	movw	r3, #65535	@ 0xffff
 8001348:	827b      	strh	r3, [r7, #18]
		if(CapFont[Character - 65][i] == 0){
 800134a:	7bfb      	ldrb	r3, [r7, #15]
 800134c:	3b41      	subs	r3, #65	@ 0x41
 800134e:	490f      	ldr	r1, [pc, #60]	@ (800138c <_Z13DrawCharactercii+0x78>)
 8001350:	2264      	movs	r2, #100	@ 0x64
 8001352:	fb03 f202 	mul.w	r2, r3, r2
 8001356:	697b      	ldr	r3, [r7, #20]
 8001358:	4413      	add	r3, r2
 800135a:	f851 3023 	ldr.w	r3, [r1, r3, lsl #2]
 800135e:	2b00      	cmp	r3, #0
 8001360:	d101      	bne.n	8001366 <_Z13DrawCharactercii+0x52>
			data = 0x00;
 8001362:	2300      	movs	r3, #0
 8001364:	827b      	strh	r3, [r7, #18]
		}
		HAL_SPI_Transmit(DisplayHandle, (uint8_t*)&data, 2, 100);
 8001366:	4b0a      	ldr	r3, [pc, #40]	@ (8001390 <_Z13DrawCharactercii+0x7c>)
 8001368:	6818      	ldr	r0, [r3, #0]
 800136a:	f107 0112 	add.w	r1, r7, #18
 800136e:	2364      	movs	r3, #100	@ 0x64
 8001370:	2202      	movs	r2, #2
 8001372:	f001 fde6 	bl	8002f42 <HAL_SPI_Transmit>
	for(int i = 0; i < 100; i++){
 8001376:	697b      	ldr	r3, [r7, #20]
 8001378:	3301      	adds	r3, #1
 800137a:	617b      	str	r3, [r7, #20]
 800137c:	697b      	ldr	r3, [r7, #20]
 800137e:	2b63      	cmp	r3, #99	@ 0x63
 8001380:	dde0      	ble.n	8001344 <_Z13DrawCharactercii+0x30>
	}
}
 8001382:	bf00      	nop
 8001384:	bf00      	nop
 8001386:	3718      	adds	r7, #24
 8001388:	46bd      	mov	sp, r7
 800138a:	bd80      	pop	{r7, pc}
 800138c:	20000000 	.word	0x20000000
 8001390:	2000c92c 	.word	0x2000c92c

08001394 <_Z9DrawImagePt>:

void DrawImage(uint16_t image[]){
 8001394:	b580      	push	{r7, lr}
 8001396:	b084      	sub	sp, #16
 8001398:	af00      	add	r7, sp, #0
 800139a:	6078      	str	r0, [r7, #4]
	SetAddr(0, 0);
 800139c:	237f      	movs	r3, #127	@ 0x7f
 800139e:	229f      	movs	r2, #159	@ 0x9f
 80013a0:	2100      	movs	r1, #0
 80013a2:	2000      	movs	r0, #0
 80013a4:	f7ff fcbc 	bl	8000d20 <_Z7SetAddriiii>
	WriteCommand(RAMWR);
 80013a8:	2200      	movs	r2, #0
 80013aa:	2100      	movs	r1, #0
 80013ac:	202c      	movs	r0, #44	@ 0x2c
 80013ae:	f7ff fbfb 	bl	8000ba8 <_Z12WriteCommandhPhh>
	for(int i = 0; i < D_HEIGHT * D_WIDTH; i++){
 80013b2:	2300      	movs	r3, #0
 80013b4:	60fb      	str	r3, [r7, #12]
 80013b6:	e022      	b.n	80013fe <_Z9DrawImagePt+0x6a>
		uint8_t Data = ((image[i] & 0xFF00) >> 8);
 80013b8:	68fb      	ldr	r3, [r7, #12]
 80013ba:	005b      	lsls	r3, r3, #1
 80013bc:	687a      	ldr	r2, [r7, #4]
 80013be:	4413      	add	r3, r2
 80013c0:	881b      	ldrh	r3, [r3, #0]
 80013c2:	0a1b      	lsrs	r3, r3, #8
 80013c4:	b29b      	uxth	r3, r3
 80013c6:	b2db      	uxtb	r3, r3
 80013c8:	72fb      	strb	r3, [r7, #11]
		HAL_SPI_Transmit(DisplayHandle, (uint8_t*)&Data, 1, 100);
 80013ca:	4b11      	ldr	r3, [pc, #68]	@ (8001410 <_Z9DrawImagePt+0x7c>)
 80013cc:	6818      	ldr	r0, [r3, #0]
 80013ce:	f107 010b 	add.w	r1, r7, #11
 80013d2:	2364      	movs	r3, #100	@ 0x64
 80013d4:	2201      	movs	r2, #1
 80013d6:	f001 fdb4 	bl	8002f42 <HAL_SPI_Transmit>
		Data = (image[i] & 0xFF);
 80013da:	68fb      	ldr	r3, [r7, #12]
 80013dc:	005b      	lsls	r3, r3, #1
 80013de:	687a      	ldr	r2, [r7, #4]
 80013e0:	4413      	add	r3, r2
 80013e2:	881b      	ldrh	r3, [r3, #0]
 80013e4:	b2db      	uxtb	r3, r3
 80013e6:	72fb      	strb	r3, [r7, #11]
		HAL_SPI_Transmit(DisplayHandle, (uint8_t*)&Data, 1, 100);
 80013e8:	4b09      	ldr	r3, [pc, #36]	@ (8001410 <_Z9DrawImagePt+0x7c>)
 80013ea:	6818      	ldr	r0, [r3, #0]
 80013ec:	f107 010b 	add.w	r1, r7, #11
 80013f0:	2364      	movs	r3, #100	@ 0x64
 80013f2:	2201      	movs	r2, #1
 80013f4:	f001 fda5 	bl	8002f42 <HAL_SPI_Transmit>
	for(int i = 0; i < D_HEIGHT * D_WIDTH; i++){
 80013f8:	68fb      	ldr	r3, [r7, #12]
 80013fa:	3301      	adds	r3, #1
 80013fc:	60fb      	str	r3, [r7, #12]
 80013fe:	68fb      	ldr	r3, [r7, #12]
 8001400:	f5b3 4fa0 	cmp.w	r3, #20480	@ 0x5000
 8001404:	dbd8      	blt.n	80013b8 <_Z9DrawImagePt+0x24>
	}
}
 8001406:	bf00      	nop
 8001408:	bf00      	nop
 800140a:	3710      	adds	r7, #16
 800140c:	46bd      	mov	sp, r7
 800140e:	bd80      	pop	{r7, pc}
 8001410:	2000c92c 	.word	0x2000c92c

08001414 <_Z8GenColorjjj>:

unsigned int GenColor(unsigned int R, unsigned int G, unsigned int B){
 8001414:	b480      	push	{r7}
 8001416:	b085      	sub	sp, #20
 8001418:	af00      	add	r7, sp, #0
 800141a:	60f8      	str	r0, [r7, #12]
 800141c:	60b9      	str	r1, [r7, #8]
 800141e:	607a      	str	r2, [r7, #4]
    R = R <= 0x1F ? R : 0x1F;
 8001420:	68fb      	ldr	r3, [r7, #12]
 8001422:	2b1f      	cmp	r3, #31
 8001424:	bf28      	it	cs
 8001426:	231f      	movcs	r3, #31
 8001428:	60fb      	str	r3, [r7, #12]
    G = G <= 0x3F ? G : 0x3F;
 800142a:	68bb      	ldr	r3, [r7, #8]
 800142c:	2b3f      	cmp	r3, #63	@ 0x3f
 800142e:	bf28      	it	cs
 8001430:	233f      	movcs	r3, #63	@ 0x3f
 8001432:	60bb      	str	r3, [r7, #8]
    B = B <= 0x1F ? B : 0x1F;
 8001434:	687b      	ldr	r3, [r7, #4]
 8001436:	2b1f      	cmp	r3, #31
 8001438:	bf28      	it	cs
 800143a:	231f      	movcs	r3, #31
 800143c:	607b      	str	r3, [r7, #4]
    return((R<<11) + (G<<5) + B);
 800143e:	68fb      	ldr	r3, [r7, #12]
 8001440:	02da      	lsls	r2, r3, #11
 8001442:	68bb      	ldr	r3, [r7, #8]
 8001444:	015b      	lsls	r3, r3, #5
 8001446:	441a      	add	r2, r3
 8001448:	687b      	ldr	r3, [r7, #4]
 800144a:	4413      	add	r3, r2
}
 800144c:	4618      	mov	r0, r3
 800144e:	3714      	adds	r7, #20
 8001450:	46bd      	mov	sp, r7
 8001452:	f85d 7b04 	ldr.w	r7, [sp], #4
 8001456:	4770      	bx	lr

08001458 <_Z10ColorRatiofff>:

unsigned int ColorRatio(float R, float G, float B){
 8001458:	b580      	push	{r7, lr}
 800145a:	b084      	sub	sp, #16
 800145c:	af00      	add	r7, sp, #0
 800145e:	ed87 0a03 	vstr	s0, [r7, #12]
 8001462:	edc7 0a02 	vstr	s1, [r7, #8]
 8001466:	ed87 1a01 	vstr	s2, [r7, #4]
    R = R <= 1.0 ? R : 1.0;
 800146a:	edd7 7a03 	vldr	s15, [r7, #12]
 800146e:	eeb7 7a00 	vmov.f32	s14, #112	@ 0x3f800000  1.0
 8001472:	eef4 7ac7 	vcmpe.f32	s15, s14
 8001476:	eef1 fa10 	vmrs	APSR_nzcv, fpscr
 800147a:	d801      	bhi.n	8001480 <_Z10ColorRatiofff+0x28>
 800147c:	68fb      	ldr	r3, [r7, #12]
 800147e:	e001      	b.n	8001484 <_Z10ColorRatiofff+0x2c>
 8001480:	f04f 537e 	mov.w	r3, #1065353216	@ 0x3f800000
 8001484:	60fb      	str	r3, [r7, #12]
    G = G <= 1.0 ? G : 1.0;
 8001486:	edd7 7a02 	vldr	s15, [r7, #8]
 800148a:	eeb7 7a00 	vmov.f32	s14, #112	@ 0x3f800000  1.0
 800148e:	eef4 7ac7 	vcmpe.f32	s15, s14
 8001492:	eef1 fa10 	vmrs	APSR_nzcv, fpscr
 8001496:	d801      	bhi.n	800149c <_Z10ColorRatiofff+0x44>
 8001498:	68bb      	ldr	r3, [r7, #8]
 800149a:	e001      	b.n	80014a0 <_Z10ColorRatiofff+0x48>
 800149c:	f04f 537e 	mov.w	r3, #1065353216	@ 0x3f800000
 80014a0:	60bb      	str	r3, [r7, #8]
    B = B <= 1.0 ? B : 1.0;
 80014a2:	edd7 7a01 	vldr	s15, [r7, #4]
 80014a6:	eeb7 7a00 	vmov.f32	s14, #112	@ 0x3f800000  1.0
 80014aa:	eef4 7ac7 	vcmpe.f32	s15, s14
 80014ae:	eef1 fa10 	vmrs	APSR_nzcv, fpscr
 80014b2:	d801      	bhi.n	80014b8 <_Z10ColorRatiofff+0x60>
 80014b4:	687b      	ldr	r3, [r7, #4]
 80014b6:	e001      	b.n	80014bc <_Z10ColorRatiofff+0x64>
 80014b8:	f04f 537e 	mov.w	r3, #1065353216	@ 0x3f800000
 80014bc:	607b      	str	r3, [r7, #4]
    return GenColor(int(R * 31), int(G * 63), int(B * 31));
 80014be:	edd7 7a03 	vldr	s15, [r7, #12]
 80014c2:	eeb3 7a0f 	vmov.f32	s14, #63	@ 0x41f80000  31.0
 80014c6:	ee67 7a87 	vmul.f32	s15, s15, s14
 80014ca:	eefd 7ae7 	vcvt.s32.f32	s15, s15
 80014ce:	ee17 3a90 	vmov	r3, s15
 80014d2:	edd7 7a02 	vldr	s15, [r7, #8]
 80014d6:	ed9f 7a0d 	vldr	s14, [pc, #52]	@ 800150c <_Z10ColorRatiofff+0xb4>
 80014da:	ee67 7a87 	vmul.f32	s15, s15, s14
 80014de:	eefd 7ae7 	vcvt.s32.f32	s15, s15
 80014e2:	ee17 1a90 	vmov	r1, s15
 80014e6:	edd7 7a01 	vldr	s15, [r7, #4]
 80014ea:	eeb3 7a0f 	vmov.f32	s14, #63	@ 0x41f80000  31.0
 80014ee:	ee67 7a87 	vmul.f32	s15, s15, s14
 80014f2:	eefd 7ae7 	vcvt.s32.f32	s15, s15
 80014f6:	ee17 2a90 	vmov	r2, s15
 80014fa:	4618      	mov	r0, r3
 80014fc:	f7ff ff8a 	bl	8001414 <_Z8GenColorjjj>
 8001500:	4603      	mov	r3, r0
}
 8001502:	4618      	mov	r0, r3
 8001504:	3710      	adds	r7, #16
 8001506:	46bd      	mov	sp, r7
 8001508:	bd80      	pop	{r7, pc}
 800150a:	bf00      	nop
 800150c:	427c0000 	.word	0x427c0000

08001510 <_Z17WriteCommandVargsIiJiiiiEEvT_DpT0_>:
void WriteCommandVargs(command Command, VarArgs... Args){
 8001510:	b580      	push	{r7, lr}
 8001512:	b084      	sub	sp, #16
 8001514:	af00      	add	r7, sp, #0
 8001516:	60f8      	str	r0, [r7, #12]
 8001518:	60b9      	str	r1, [r7, #8]
 800151a:	607a      	str	r2, [r7, #4]
 800151c:	603b      	str	r3, [r7, #0]
	HAL_GPIO_WritePin(DC_PORT, DC_PIN, GPIO_PIN_RESET);
 800151e:	2200      	movs	r2, #0
 8001520:	2101      	movs	r1, #1
 8001522:	480d      	ldr	r0, [pc, #52]	@ (8001558 <_Z17WriteCommandVargsIiJiiiiEEvT_DpT0_+0x48>)
 8001524:	f000 fdee 	bl	8002104 <HAL_GPIO_WritePin>
	HAL_SPI_Transmit(DisplayHandle, (uint8_t*)&Command, 1, 100);
 8001528:	4b0c      	ldr	r3, [pc, #48]	@ (800155c <_Z17WriteCommandVargsIiJiiiiEEvT_DpT0_+0x4c>)
 800152a:	6818      	ldr	r0, [r3, #0]
 800152c:	f107 010c 	add.w	r1, r7, #12
 8001530:	2364      	movs	r3, #100	@ 0x64
 8001532:	2201      	movs	r2, #1
 8001534:	f001 fd05 	bl	8002f42 <HAL_SPI_Transmit>
	HAL_GPIO_WritePin(DC_PORT, DC_PIN, GPIO_PIN_SET);
 8001538:	2201      	movs	r2, #1
 800153a:	2101      	movs	r1, #1
 800153c:	4806      	ldr	r0, [pc, #24]	@ (8001558 <_Z17WriteCommandVargsIiJiiiiEEvT_DpT0_+0x48>)
 800153e:	f000 fde1 	bl	8002104 <HAL_GPIO_WritePin>
    WriteParams(Args...);
 8001542:	69bb      	ldr	r3, [r7, #24]
 8001544:	683a      	ldr	r2, [r7, #0]
 8001546:	6879      	ldr	r1, [r7, #4]
 8001548:	68b8      	ldr	r0, [r7, #8]
 800154a:	f000 f85f 	bl	800160c <_Z11WriteParamsIiJiiiEEvT_DpT0_>
}
 800154e:	bf00      	nop
 8001550:	3710      	adds	r7, #16
 8001552:	46bd      	mov	sp, r7
 8001554:	bd80      	pop	{r7, pc}
 8001556:	bf00      	nop
 8001558:	48000400 	.word	0x48000400
 800155c:	2000c92c 	.word	0x2000c92c

08001560 <_Z4SwapIiEvRT_S1_>:
void Swap(type &a, type &b){
 8001560:	b480      	push	{r7}
 8001562:	b085      	sub	sp, #20
 8001564:	af00      	add	r7, sp, #0
 8001566:	6078      	str	r0, [r7, #4]
 8001568:	6039      	str	r1, [r7, #0]
    type c = a;
 800156a:	687b      	ldr	r3, [r7, #4]
 800156c:	681b      	ldr	r3, [r3, #0]
 800156e:	60fb      	str	r3, [r7, #12]
    a = b;
 8001570:	683b      	ldr	r3, [r7, #0]
 8001572:	681a      	ldr	r2, [r3, #0]
 8001574:	687b      	ldr	r3, [r7, #4]
 8001576:	601a      	str	r2, [r3, #0]
    b = c;
 8001578:	683b      	ldr	r3, [r7, #0]
 800157a:	68fa      	ldr	r2, [r7, #12]
 800157c:	601a      	str	r2, [r3, #0]
}
 800157e:	bf00      	nop
 8001580:	3714      	adds	r7, #20
 8001582:	46bd      	mov	sp, r7
 8001584:	f85d 7b04 	ldr.w	r7, [sp], #4
 8001588:	4770      	bx	lr

0800158a <_ZSt3powIiiEN9__gnu_cxx11__promote_2IT_T0_NS0_9__promoteIS2_XsrSt12__is_integerIS2_E7__valueEE6__typeENS4_IS3_XsrS5_IS3_E7__valueEE6__typeEE6__typeES2_S3_>:
#endif

  template<typename _Tp, typename _Up>
    inline _GLIBCXX_CONSTEXPR
    typename __gnu_cxx::__promote_2<_Tp, _Up>::__type
    pow(_Tp __x, _Up __y)
 800158a:	b5b0      	push	{r4, r5, r7, lr}
 800158c:	b082      	sub	sp, #8
 800158e:	af00      	add	r7, sp, #0
 8001590:	6078      	str	r0, [r7, #4]
 8001592:	6039      	str	r1, [r7, #0]
    {
      typedef typename __gnu_cxx::__promote_2<_Tp, _Up>::__type __type;
      return pow(__type(__x), __type(__y));
 8001594:	6878      	ldr	r0, [r7, #4]
 8001596:	f7fe ff6d 	bl	8000474 <__aeabi_i2d>
 800159a:	4604      	mov	r4, r0
 800159c:	460d      	mov	r5, r1
 800159e:	6838      	ldr	r0, [r7, #0]
 80015a0:	f7fe ff68 	bl	8000474 <__aeabi_i2d>
 80015a4:	4602      	mov	r2, r0
 80015a6:	460b      	mov	r3, r1
 80015a8:	ec43 2b11 	vmov	d1, r2, r3
 80015ac:	ec45 4b10 	vmov	d0, r4, r5
 80015b0:	f001 ffa0 	bl	80034f4 <pow>
 80015b4:	eeb0 7a40 	vmov.f32	s14, s0
 80015b8:	eef0 7a60 	vmov.f32	s15, s1
    }
 80015bc:	eeb0 0a47 	vmov.f32	s0, s14
 80015c0:	eef0 0a67 	vmov.f32	s1, s15
 80015c4:	3708      	adds	r7, #8
 80015c6:	46bd      	mov	sp, r7
 80015c8:	bdb0      	pop	{r4, r5, r7, pc}

080015ca <_ZSt3powIfiEN9__gnu_cxx11__promote_2IT_T0_NS0_9__promoteIS2_XsrSt12__is_integerIS2_E7__valueEE6__typeENS4_IS3_XsrS5_IS3_E7__valueEE6__typeEE6__typeES2_S3_>:
    pow(_Tp __x, _Up __y)
 80015ca:	b5b0      	push	{r4, r5, r7, lr}
 80015cc:	b082      	sub	sp, #8
 80015ce:	af00      	add	r7, sp, #0
 80015d0:	ed87 0a01 	vstr	s0, [r7, #4]
 80015d4:	6038      	str	r0, [r7, #0]
      return pow(__type(__x), __type(__y));
 80015d6:	6878      	ldr	r0, [r7, #4]
 80015d8:	f7fe ff5e 	bl	8000498 <__aeabi_f2d>
 80015dc:	4604      	mov	r4, r0
 80015de:	460d      	mov	r5, r1
 80015e0:	6838      	ldr	r0, [r7, #0]
 80015e2:	f7fe ff47 	bl	8000474 <__aeabi_i2d>
 80015e6:	4602      	mov	r2, r0
 80015e8:	460b      	mov	r3, r1
 80015ea:	ec43 2b11 	vmov	d1, r2, r3
 80015ee:	ec45 4b10 	vmov	d0, r4, r5
 80015f2:	f001 ff7f 	bl	80034f4 <pow>
 80015f6:	eeb0 7a40 	vmov.f32	s14, s0
 80015fa:	eef0 7a60 	vmov.f32	s15, s1
    }
 80015fe:	eeb0 0a47 	vmov.f32	s0, s14
 8001602:	eef0 0a67 	vmov.f32	s1, s15
 8001606:	3708      	adds	r7, #8
 8001608:	46bd      	mov	sp, r7
 800160a:	bdb0      	pop	{r4, r5, r7, pc}

0800160c <_Z11WriteParamsIiJiiiEEvT_DpT0_>:
void WriteParams(First first, VarArgs... Args){
 800160c:	b580      	push	{r7, lr}
 800160e:	b084      	sub	sp, #16
 8001610:	af00      	add	r7, sp, #0
 8001612:	60f8      	str	r0, [r7, #12]
 8001614:	60b9      	str	r1, [r7, #8]
 8001616:	607a      	str	r2, [r7, #4]
 8001618:	603b      	str	r3, [r7, #0]
	HAL_SPI_Transmit(DisplayHandle, (uint8_t*)&first, 1, 100);
 800161a:	4b08      	ldr	r3, [pc, #32]	@ (800163c <_Z11WriteParamsIiJiiiEEvT_DpT0_+0x30>)
 800161c:	6818      	ldr	r0, [r3, #0]
 800161e:	f107 010c 	add.w	r1, r7, #12
 8001622:	2364      	movs	r3, #100	@ 0x64
 8001624:	2201      	movs	r2, #1
 8001626:	f001 fc8c 	bl	8002f42 <HAL_SPI_Transmit>
    WriteParams(Args...);
 800162a:	683a      	ldr	r2, [r7, #0]
 800162c:	6879      	ldr	r1, [r7, #4]
 800162e:	68b8      	ldr	r0, [r7, #8]
 8001630:	f000 f806 	bl	8001640 <_Z11WriteParamsIiJiiEEvT_DpT0_>
}
 8001634:	bf00      	nop
 8001636:	3710      	adds	r7, #16
 8001638:	46bd      	mov	sp, r7
 800163a:	bd80      	pop	{r7, pc}
 800163c:	2000c92c 	.word	0x2000c92c

08001640 <_Z11WriteParamsIiJiiEEvT_DpT0_>:
void WriteParams(First first, VarArgs... Args){
 8001640:	b580      	push	{r7, lr}
 8001642:	b084      	sub	sp, #16
 8001644:	af00      	add	r7, sp, #0
 8001646:	60f8      	str	r0, [r7, #12]
 8001648:	60b9      	str	r1, [r7, #8]
 800164a:	607a      	str	r2, [r7, #4]
	HAL_SPI_Transmit(DisplayHandle, (uint8_t*)&first, 1, 100);
 800164c:	4b07      	ldr	r3, [pc, #28]	@ (800166c <_Z11WriteParamsIiJiiEEvT_DpT0_+0x2c>)
 800164e:	6818      	ldr	r0, [r3, #0]
 8001650:	f107 010c 	add.w	r1, r7, #12
 8001654:	2364      	movs	r3, #100	@ 0x64
 8001656:	2201      	movs	r2, #1
 8001658:	f001 fc73 	bl	8002f42 <HAL_SPI_Transmit>
    WriteParams(Args...);
 800165c:	6879      	ldr	r1, [r7, #4]
 800165e:	68b8      	ldr	r0, [r7, #8]
 8001660:	f000 f806 	bl	8001670 <_Z11WriteParamsIiJiEEvT_DpT0_>
}
 8001664:	bf00      	nop
 8001666:	3710      	adds	r7, #16
 8001668:	46bd      	mov	sp, r7
 800166a:	bd80      	pop	{r7, pc}
 800166c:	2000c92c 	.word	0x2000c92c

08001670 <_Z11WriteParamsIiJiEEvT_DpT0_>:
void WriteParams(First first, VarArgs... Args){
 8001670:	b580      	push	{r7, lr}
 8001672:	b082      	sub	sp, #8
 8001674:	af00      	add	r7, sp, #0
 8001676:	6078      	str	r0, [r7, #4]
 8001678:	6039      	str	r1, [r7, #0]
	HAL_SPI_Transmit(DisplayHandle, (uint8_t*)&first, 1, 100);
 800167a:	4b07      	ldr	r3, [pc, #28]	@ (8001698 <_Z11WriteParamsIiJiEEvT_DpT0_+0x28>)
 800167c:	6818      	ldr	r0, [r3, #0]
 800167e:	1d39      	adds	r1, r7, #4
 8001680:	2364      	movs	r3, #100	@ 0x64
 8001682:	2201      	movs	r2, #1
 8001684:	f001 fc5d 	bl	8002f42 <HAL_SPI_Transmit>
    WriteParams(Args...);
 8001688:	6838      	ldr	r0, [r7, #0]
 800168a:	f000 f807 	bl	800169c <_Z11WriteParamsIiJEEvT_DpT0_>
}
 800168e:	bf00      	nop
 8001690:	3708      	adds	r7, #8
 8001692:	46bd      	mov	sp, r7
 8001694:	bd80      	pop	{r7, pc}
 8001696:	bf00      	nop
 8001698:	2000c92c 	.word	0x2000c92c

0800169c <_Z11WriteParamsIiJEEvT_DpT0_>:
void WriteParams(First first, VarArgs... Args){
 800169c:	b580      	push	{r7, lr}
 800169e:	b082      	sub	sp, #8
 80016a0:	af00      	add	r7, sp, #0
 80016a2:	6078      	str	r0, [r7, #4]
	HAL_SPI_Transmit(DisplayHandle, (uint8_t*)&first, 1, 100);
 80016a4:	4b06      	ldr	r3, [pc, #24]	@ (80016c0 <_Z11WriteParamsIiJEEvT_DpT0_+0x24>)
 80016a6:	6818      	ldr	r0, [r3, #0]
 80016a8:	1d39      	adds	r1, r7, #4
 80016aa:	2364      	movs	r3, #100	@ 0x64
 80016ac:	2201      	movs	r2, #1
 80016ae:	f001 fc48 	bl	8002f42 <HAL_SPI_Transmit>
    WriteParams(Args...);
 80016b2:	f7ff fa71 	bl	8000b98 <_Z11WriteParamsv>
}
 80016b6:	bf00      	nop
 80016b8:	3708      	adds	r7, #8
 80016ba:	46bd      	mov	sp, r7
 80016bc:	bd80      	pop	{r7, pc}
 80016be:	bf00      	nop
 80016c0:	2000c92c 	.word	0x2000c92c

080016c4 <main>:
/**
  * @brief  The application entry point.
  * @retval int
  */
int main(void)
{
 80016c4:	b580      	push	{r7, lr}
 80016c6:	b084      	sub	sp, #16
 80016c8:	af02      	add	r7, sp, #8
  /* USER CODE END 1 */

  /* MCU Configuration--------------------------------------------------------*/

  /* Reset of all peripherals, Initializes the Flash interface and the Systick. */
  HAL_Init();
 80016ca:	f000 fa32 	bl	8001b32 <HAL_Init>
  /* USER CODE BEGIN Init */

  /* USER CODE END Init */

  /* Configure the system clock */
  SystemClock_Config();
 80016ce:	f000 f875 	bl	80017bc <_Z18SystemClock_Configv>
  /* USER CODE BEGIN SysInit */

  /* USER CODE END SysInit */

  /* Initialize all configured peripherals */
  MX_GPIO_Init();
 80016d2:	f000 f919 	bl	8001908 <_ZL12MX_GPIO_Initv>
  MX_SPI1_Init();
 80016d6:	f000 f8d3 	bl	8001880 <_ZL12MX_SPI1_Initv>

  /* USER CODE END 2 */

  /* Infinite loop */
  /* USER CODE BEGIN WHILE */
  DisplayInit(&hspi1);
 80016da:	4832      	ldr	r0, [pc, #200]	@ (80017a4 <main+0xe0>)
 80016dc:	f7ff faae 	bl	8000c3c <_Z11DisplayInitP19__SPI_HandleTypeDef>
  DrawLine(0,64,159,64,ColorRatio(0.2, 0.3, 0.4));
 80016e0:	ed9f 1a31 	vldr	s2, [pc, #196]	@ 80017a8 <main+0xe4>
 80016e4:	eddf 0a31 	vldr	s1, [pc, #196]	@ 80017ac <main+0xe8>
 80016e8:	ed9f 0a31 	vldr	s0, [pc, #196]	@ 80017b0 <main+0xec>
 80016ec:	f7ff feb4 	bl	8001458 <_Z10ColorRatiofff>
 80016f0:	4603      	mov	r3, r0
 80016f2:	9300      	str	r3, [sp, #0]
 80016f4:	2340      	movs	r3, #64	@ 0x40
 80016f6:	229f      	movs	r2, #159	@ 0x9f
 80016f8:	2140      	movs	r1, #64	@ 0x40
 80016fa:	2000      	movs	r0, #0
 80016fc:	f7ff fb6c 	bl	8000dd8 <_Z8DrawLineiiiij>
  DrawLine(80,0,80,127,ColorRatio(0.2, 0.3, 0.4));
 8001700:	ed9f 1a29 	vldr	s2, [pc, #164]	@ 80017a8 <main+0xe4>
 8001704:	eddf 0a29 	vldr	s1, [pc, #164]	@ 80017ac <main+0xe8>
 8001708:	ed9f 0a29 	vldr	s0, [pc, #164]	@ 80017b0 <main+0xec>
 800170c:	f7ff fea4 	bl	8001458 <_Z10ColorRatiofff>
 8001710:	4603      	mov	r3, r0
 8001712:	9300      	str	r3, [sp, #0]
 8001714:	237f      	movs	r3, #127	@ 0x7f
 8001716:	2250      	movs	r2, #80	@ 0x50
 8001718:	2100      	movs	r1, #0
 800171a:	2050      	movs	r0, #80	@ 0x50
 800171c:	f7ff fb5c 	bl	8000dd8 <_Z8DrawLineiiiij>
  DrawEllipse(0,0,159,127,ColorRatio(0.9, 0.3, 0.4));
 8001720:	ed9f 1a21 	vldr	s2, [pc, #132]	@ 80017a8 <main+0xe4>
 8001724:	eddf 0a21 	vldr	s1, [pc, #132]	@ 80017ac <main+0xe8>
 8001728:	ed9f 0a22 	vldr	s0, [pc, #136]	@ 80017b4 <main+0xf0>
 800172c:	f7ff fe94 	bl	8001458 <_Z10ColorRatiofff>
 8001730:	4603      	mov	r3, r0
 8001732:	461a      	mov	r2, r3
 8001734:	f04f 33ff 	mov.w	r3, #4294967295
 8001738:	9301      	str	r3, [sp, #4]
 800173a:	9200      	str	r2, [sp, #0]
 800173c:	237f      	movs	r3, #127	@ 0x7f
 800173e:	229f      	movs	r2, #159	@ 0x9f
 8001740:	2100      	movs	r1, #0
 8001742:	2000      	movs	r0, #0
 8001744:	f7ff fc32 	bl	8000fac <_Z11DrawEllipseiiiiii>
  int gap = 0;
 8001748:	2300      	movs	r3, #0
 800174a:	607b      	str	r3, [r7, #4]
//  for(int i = 0; i < 10; i++){
//	  DrawCharacter(i + 65, i * 10 + gap, 10);
//	  gap++;
//  }
  DrawCharacter('P',10 + 40,60);
 800174c:	223c      	movs	r2, #60	@ 0x3c
 800174e:	2132      	movs	r1, #50	@ 0x32
 8001750:	2050      	movs	r0, #80	@ 0x50
 8001752:	f7ff fddf 	bl	8001314 <_Z13DrawCharactercii>
  DrawCharacter('O',21 + 40,60);
 8001756:	223c      	movs	r2, #60	@ 0x3c
 8001758:	213d      	movs	r1, #61	@ 0x3d
 800175a:	204f      	movs	r0, #79	@ 0x4f
 800175c:	f7ff fdda 	bl	8001314 <_Z13DrawCharactercii>
  DrawCharacter('G',32 + 40,60);
 8001760:	223c      	movs	r2, #60	@ 0x3c
 8001762:	2148      	movs	r1, #72	@ 0x48
 8001764:	2047      	movs	r0, #71	@ 0x47
 8001766:	f7ff fdd5 	bl	8001314 <_Z13DrawCharactercii>
  DrawCharacter('G',43 + 40,60);
 800176a:	223c      	movs	r2, #60	@ 0x3c
 800176c:	2153      	movs	r1, #83	@ 0x53
 800176e:	2047      	movs	r0, #71	@ 0x47
 8001770:	f7ff fdd0 	bl	8001314 <_Z13DrawCharactercii>
  DrawCharacter('E',54 + 40,60);
 8001774:	223c      	movs	r2, #60	@ 0x3c
 8001776:	215e      	movs	r1, #94	@ 0x5e
 8001778:	2045      	movs	r0, #69	@ 0x45
 800177a:	f7ff fdcb 	bl	8001314 <_Z13DrawCharactercii>
  DrawCharacter('R',65 + 40,60);
 800177e:	223c      	movs	r2, #60	@ 0x3c
 8001780:	2169      	movs	r1, #105	@ 0x69
 8001782:	2052      	movs	r0, #82	@ 0x52
 8001784:	f7ff fdc6 	bl	8001314 <_Z13DrawCharactercii>
  DrawCharacter('S',76 + 40,60);
 8001788:	223c      	movs	r2, #60	@ 0x3c
 800178a:	2174      	movs	r1, #116	@ 0x74
 800178c:	2053      	movs	r0, #83	@ 0x53
 800178e:	f7ff fdc1 	bl	8001314 <_Z13DrawCharactercii>
  HAL_Delay(1000);
 8001792:	f44f 707a 	mov.w	r0, #1000	@ 0x3e8
 8001796:	f000 fa41 	bl	8001c1c <HAL_Delay>
  DrawImage(ImageData);
 800179a:	4807      	ldr	r0, [pc, #28]	@ (80017b8 <main+0xf4>)
 800179c:	f7ff fdfa 	bl	8001394 <_Z9DrawImagePt>
  while (1)
 80017a0:	bf00      	nop
 80017a2:	e7fd      	b.n	80017a0 <main+0xdc>
 80017a4:	2000c930 	.word	0x2000c930
 80017a8:	3ecccccd 	.word	0x3ecccccd
 80017ac:	3e99999a 	.word	0x3e99999a
 80017b0:	3e4ccccd 	.word	0x3e4ccccd
 80017b4:	3f666666 	.word	0x3f666666
 80017b8:	200028a0 	.word	0x200028a0

080017bc <_Z18SystemClock_Configv>:
/**
  * @brief System Clock Configuration
  * @retval None
  */
void SystemClock_Config(void)
{
 80017bc:	b580      	push	{r7, lr}
 80017be:	b096      	sub	sp, #88	@ 0x58
 80017c0:	af00      	add	r7, sp, #0
  RCC_OscInitTypeDef RCC_OscInitStruct = {0};
 80017c2:	f107 0314 	add.w	r3, r7, #20
 80017c6:	2244      	movs	r2, #68	@ 0x44
 80017c8:	2100      	movs	r1, #0
 80017ca:	4618      	mov	r0, r3
 80017cc:	f002 fe1c 	bl	8004408 <memset>
  RCC_ClkInitTypeDef RCC_ClkInitStruct = {0};
 80017d0:	463b      	mov	r3, r7
 80017d2:	2200      	movs	r2, #0
 80017d4:	601a      	str	r2, [r3, #0]
 80017d6:	605a      	str	r2, [r3, #4]
 80017d8:	609a      	str	r2, [r3, #8]
 80017da:	60da      	str	r2, [r3, #12]
 80017dc:	611a      	str	r2, [r3, #16]

  /** Configure the main internal regulator output voltage
  */
  if (HAL_PWREx_ControlVoltageScaling(PWR_REGULATOR_VOLTAGE_SCALE1) != HAL_OK)
 80017de:	f44f 7000 	mov.w	r0, #512	@ 0x200
 80017e2:	f000 fcb5 	bl	8002150 <HAL_PWREx_ControlVoltageScaling>
 80017e6:	4603      	mov	r3, r0
 80017e8:	2b00      	cmp	r3, #0
 80017ea:	bf14      	ite	ne
 80017ec:	2301      	movne	r3, #1
 80017ee:	2300      	moveq	r3, #0
 80017f0:	b2db      	uxtb	r3, r3
 80017f2:	2b00      	cmp	r3, #0
 80017f4:	d001      	beq.n	80017fa <_Z18SystemClock_Configv+0x3e>
  {
    Error_Handler();
 80017f6:	f000 f8c5 	bl	8001984 <Error_Handler>
  }

  /** Initializes the RCC Oscillators according to the specified parameters
  * in the RCC_OscInitTypeDef structure.
  */
  RCC_OscInitStruct.OscillatorType = RCC_OSCILLATORTYPE_MSI;
 80017fa:	2310      	movs	r3, #16
 80017fc:	617b      	str	r3, [r7, #20]
  RCC_OscInitStruct.MSIState = RCC_MSI_ON;
 80017fe:	2301      	movs	r3, #1
 8001800:	62fb      	str	r3, [r7, #44]	@ 0x2c
  RCC_OscInitStruct.MSICalibrationValue = 0;
 8001802:	2300      	movs	r3, #0
 8001804:	633b      	str	r3, [r7, #48]	@ 0x30
  RCC_OscInitStruct.MSIClockRange = RCC_MSIRANGE_6;
 8001806:	2360      	movs	r3, #96	@ 0x60
 8001808:	637b      	str	r3, [r7, #52]	@ 0x34
  RCC_OscInitStruct.PLL.PLLState = RCC_PLL_ON;
 800180a:	2302      	movs	r3, #2
 800180c:	63fb      	str	r3, [r7, #60]	@ 0x3c
  RCC_OscInitStruct.PLL.PLLSource = RCC_PLLSOURCE_MSI;
 800180e:	2301      	movs	r3, #1
 8001810:	643b      	str	r3, [r7, #64]	@ 0x40
  RCC_OscInitStruct.PLL.PLLM = 1;
 8001812:	2301      	movs	r3, #1
 8001814:	647b      	str	r3, [r7, #68]	@ 0x44
  RCC_OscInitStruct.PLL.PLLN = 20;
 8001816:	2314      	movs	r3, #20
 8001818:	64bb      	str	r3, [r7, #72]	@ 0x48
  RCC_OscInitStruct.PLL.PLLP = RCC_PLLP_DIV7;
 800181a:	2307      	movs	r3, #7
 800181c:	64fb      	str	r3, [r7, #76]	@ 0x4c
  RCC_OscInitStruct.PLL.PLLQ = RCC_PLLQ_DIV2;
 800181e:	2302      	movs	r3, #2
 8001820:	653b      	str	r3, [r7, #80]	@ 0x50
  RCC_OscInitStruct.PLL.PLLR = RCC_PLLR_DIV2;
 8001822:	2302      	movs	r3, #2
 8001824:	657b      	str	r3, [r7, #84]	@ 0x54
  if (HAL_RCC_OscConfig(&RCC_OscInitStruct) != HAL_OK)
 8001826:	f107 0314 	add.w	r3, r7, #20
 800182a:	4618      	mov	r0, r3
 800182c:	f000 fce6 	bl	80021fc <HAL_RCC_OscConfig>
 8001830:	4603      	mov	r3, r0
 8001832:	2b00      	cmp	r3, #0
 8001834:	bf14      	ite	ne
 8001836:	2301      	movne	r3, #1
 8001838:	2300      	moveq	r3, #0
 800183a:	b2db      	uxtb	r3, r3
 800183c:	2b00      	cmp	r3, #0
 800183e:	d001      	beq.n	8001844 <_Z18SystemClock_Configv+0x88>
  {
    Error_Handler();
 8001840:	f000 f8a0 	bl	8001984 <Error_Handler>
  }

  /** Initializes the CPU, AHB and APB buses clocks
  */
  RCC_ClkInitStruct.ClockType = RCC_CLOCKTYPE_HCLK|RCC_CLOCKTYPE_SYSCLK
 8001844:	230f      	movs	r3, #15
 8001846:	603b      	str	r3, [r7, #0]
                              |RCC_CLOCKTYPE_PCLK1|RCC_CLOCKTYPE_PCLK2;
  RCC_ClkInitStruct.SYSCLKSource = RCC_SYSCLKSOURCE_PLLCLK;
 8001848:	2303      	movs	r3, #3
 800184a:	607b      	str	r3, [r7, #4]
  RCC_ClkInitStruct.AHBCLKDivider = RCC_SYSCLK_DIV1;
 800184c:	2300      	movs	r3, #0
 800184e:	60bb      	str	r3, [r7, #8]
  RCC_ClkInitStruct.APB1CLKDivider = RCC_HCLK_DIV1;
 8001850:	2300      	movs	r3, #0
 8001852:	60fb      	str	r3, [r7, #12]
  RCC_ClkInitStruct.APB2CLKDivider = RCC_HCLK_DIV1;
 8001854:	2300      	movs	r3, #0
 8001856:	613b      	str	r3, [r7, #16]

  if (HAL_RCC_ClockConfig(&RCC_ClkInitStruct, FLASH_LATENCY_2) != HAL_OK)
 8001858:	463b      	mov	r3, r7
 800185a:	2102      	movs	r1, #2
 800185c:	4618      	mov	r0, r3
 800185e:	f001 f8e1 	bl	8002a24 <HAL_RCC_ClockConfig>
 8001862:	4603      	mov	r3, r0
 8001864:	2b00      	cmp	r3, #0
 8001866:	bf14      	ite	ne
 8001868:	2301      	movne	r3, #1
 800186a:	2300      	moveq	r3, #0
 800186c:	b2db      	uxtb	r3, r3
 800186e:	2b00      	cmp	r3, #0
 8001870:	d001      	beq.n	8001876 <_Z18SystemClock_Configv+0xba>
  {
    Error_Handler();
 8001872:	f000 f887 	bl	8001984 <Error_Handler>
  }
}
 8001876:	bf00      	nop
 8001878:	3758      	adds	r7, #88	@ 0x58
 800187a:	46bd      	mov	sp, r7
 800187c:	bd80      	pop	{r7, pc}
	...

08001880 <_ZL12MX_SPI1_Initv>:
  * @brief SPI1 Initialization Function
  * @param None
  * @retval None
  */
static void MX_SPI1_Init(void)
{
 8001880:	b580      	push	{r7, lr}
 8001882:	af00      	add	r7, sp, #0

  /* USER CODE BEGIN SPI1_Init 1 */

  /* USER CODE END SPI1_Init 1 */
  /* SPI1 parameter configuration*/
  hspi1.Instance = SPI1;
 8001884:	4b1e      	ldr	r3, [pc, #120]	@ (8001900 <_ZL12MX_SPI1_Initv+0x80>)
 8001886:	4a1f      	ldr	r2, [pc, #124]	@ (8001904 <_ZL12MX_SPI1_Initv+0x84>)
 8001888:	601a      	str	r2, [r3, #0]
  hspi1.Init.Mode = SPI_MODE_MASTER;
 800188a:	4b1d      	ldr	r3, [pc, #116]	@ (8001900 <_ZL12MX_SPI1_Initv+0x80>)
 800188c:	f44f 7282 	mov.w	r2, #260	@ 0x104
 8001890:	605a      	str	r2, [r3, #4]
  hspi1.Init.Direction = SPI_DIRECTION_1LINE;
 8001892:	4b1b      	ldr	r3, [pc, #108]	@ (8001900 <_ZL12MX_SPI1_Initv+0x80>)
 8001894:	f44f 4200 	mov.w	r2, #32768	@ 0x8000
 8001898:	609a      	str	r2, [r3, #8]
  hspi1.Init.DataSize = SPI_DATASIZE_8BIT;
 800189a:	4b19      	ldr	r3, [pc, #100]	@ (8001900 <_ZL12MX_SPI1_Initv+0x80>)
 800189c:	f44f 62e0 	mov.w	r2, #1792	@ 0x700
 80018a0:	60da      	str	r2, [r3, #12]
  hspi1.Init.CLKPolarity = SPI_POLARITY_LOW;
 80018a2:	4b17      	ldr	r3, [pc, #92]	@ (8001900 <_ZL12MX_SPI1_Initv+0x80>)
 80018a4:	2200      	movs	r2, #0
 80018a6:	611a      	str	r2, [r3, #16]
  hspi1.Init.CLKPhase = SPI_PHASE_1EDGE;
 80018a8:	4b15      	ldr	r3, [pc, #84]	@ (8001900 <_ZL12MX_SPI1_Initv+0x80>)
 80018aa:	2200      	movs	r2, #0
 80018ac:	615a      	str	r2, [r3, #20]
  hspi1.Init.NSS = SPI_NSS_SOFT;
 80018ae:	4b14      	ldr	r3, [pc, #80]	@ (8001900 <_ZL12MX_SPI1_Initv+0x80>)
 80018b0:	f44f 7200 	mov.w	r2, #512	@ 0x200
 80018b4:	619a      	str	r2, [r3, #24]
  hspi1.Init.BaudRatePrescaler = SPI_BAUDRATEPRESCALER_8;
 80018b6:	4b12      	ldr	r3, [pc, #72]	@ (8001900 <_ZL12MX_SPI1_Initv+0x80>)
 80018b8:	2210      	movs	r2, #16
 80018ba:	61da      	str	r2, [r3, #28]
  hspi1.Init.FirstBit = SPI_FIRSTBIT_MSB;
 80018bc:	4b10      	ldr	r3, [pc, #64]	@ (8001900 <_ZL12MX_SPI1_Initv+0x80>)
 80018be:	2200      	movs	r2, #0
 80018c0:	621a      	str	r2, [r3, #32]
  hspi1.Init.TIMode = SPI_TIMODE_DISABLE;
 80018c2:	4b0f      	ldr	r3, [pc, #60]	@ (8001900 <_ZL12MX_SPI1_Initv+0x80>)
 80018c4:	2200      	movs	r2, #0
 80018c6:	625a      	str	r2, [r3, #36]	@ 0x24
  hspi1.Init.CRCCalculation = SPI_CRCCALCULATION_DISABLE;
 80018c8:	4b0d      	ldr	r3, [pc, #52]	@ (8001900 <_ZL12MX_SPI1_Initv+0x80>)
 80018ca:	2200      	movs	r2, #0
 80018cc:	629a      	str	r2, [r3, #40]	@ 0x28
  hspi1.Init.CRCPolynomial = 7;
 80018ce:	4b0c      	ldr	r3, [pc, #48]	@ (8001900 <_ZL12MX_SPI1_Initv+0x80>)
 80018d0:	2207      	movs	r2, #7
 80018d2:	62da      	str	r2, [r3, #44]	@ 0x2c
  hspi1.Init.CRCLength = SPI_CRC_LENGTH_DATASIZE;
 80018d4:	4b0a      	ldr	r3, [pc, #40]	@ (8001900 <_ZL12MX_SPI1_Initv+0x80>)
 80018d6:	2200      	movs	r2, #0
 80018d8:	631a      	str	r2, [r3, #48]	@ 0x30
  hspi1.Init.NSSPMode = SPI_NSS_PULSE_ENABLE;
 80018da:	4b09      	ldr	r3, [pc, #36]	@ (8001900 <_ZL12MX_SPI1_Initv+0x80>)
 80018dc:	2208      	movs	r2, #8
 80018de:	635a      	str	r2, [r3, #52]	@ 0x34
  if (HAL_SPI_Init(&hspi1) != HAL_OK)
 80018e0:	4807      	ldr	r0, [pc, #28]	@ (8001900 <_ZL12MX_SPI1_Initv+0x80>)
 80018e2:	f001 fa8b 	bl	8002dfc <HAL_SPI_Init>
 80018e6:	4603      	mov	r3, r0
 80018e8:	2b00      	cmp	r3, #0
 80018ea:	bf14      	ite	ne
 80018ec:	2301      	movne	r3, #1
 80018ee:	2300      	moveq	r3, #0
 80018f0:	b2db      	uxtb	r3, r3
 80018f2:	2b00      	cmp	r3, #0
 80018f4:	d001      	beq.n	80018fa <_ZL12MX_SPI1_Initv+0x7a>
  {
    Error_Handler();
 80018f6:	f000 f845 	bl	8001984 <Error_Handler>
  }
  /* USER CODE BEGIN SPI1_Init 2 */

  /* USER CODE END SPI1_Init 2 */

}
 80018fa:	bf00      	nop
 80018fc:	bd80      	pop	{r7, pc}
 80018fe:	bf00      	nop
 8001900:	2000c930 	.word	0x2000c930
 8001904:	40013000 	.word	0x40013000

08001908 <_ZL12MX_GPIO_Initv>:
  * @brief GPIO Initialization Function
  * @param None
  * @retval None
  */
static void MX_GPIO_Init(void)
{
 8001908:	b580      	push	{r7, lr}
 800190a:	b088      	sub	sp, #32
 800190c:	af00      	add	r7, sp, #0
  GPIO_InitTypeDef GPIO_InitStruct = {0};
 800190e:	f107 030c 	add.w	r3, r7, #12
 8001912:	2200      	movs	r2, #0
 8001914:	601a      	str	r2, [r3, #0]
 8001916:	605a      	str	r2, [r3, #4]
 8001918:	609a      	str	r2, [r3, #8]
 800191a:	60da      	str	r2, [r3, #12]
 800191c:	611a      	str	r2, [r3, #16]
/* USER CODE BEGIN MX_GPIO_Init_1 */
/* USER CODE END MX_GPIO_Init_1 */

  /* GPIO Ports Clock Enable */
  __HAL_RCC_GPIOA_CLK_ENABLE();
 800191e:	4b17      	ldr	r3, [pc, #92]	@ (800197c <_ZL12MX_GPIO_Initv+0x74>)
 8001920:	6cdb      	ldr	r3, [r3, #76]	@ 0x4c
 8001922:	4a16      	ldr	r2, [pc, #88]	@ (800197c <_ZL12MX_GPIO_Initv+0x74>)
 8001924:	f043 0301 	orr.w	r3, r3, #1
 8001928:	64d3      	str	r3, [r2, #76]	@ 0x4c
 800192a:	4b14      	ldr	r3, [pc, #80]	@ (800197c <_ZL12MX_GPIO_Initv+0x74>)
 800192c:	6cdb      	ldr	r3, [r3, #76]	@ 0x4c
 800192e:	f003 0301 	and.w	r3, r3, #1
 8001932:	60bb      	str	r3, [r7, #8]
 8001934:	68bb      	ldr	r3, [r7, #8]
  __HAL_RCC_GPIOB_CLK_ENABLE();
 8001936:	4b11      	ldr	r3, [pc, #68]	@ (800197c <_ZL12MX_GPIO_Initv+0x74>)
 8001938:	6cdb      	ldr	r3, [r3, #76]	@ 0x4c
 800193a:	4a10      	ldr	r2, [pc, #64]	@ (800197c <_ZL12MX_GPIO_Initv+0x74>)
 800193c:	f043 0302 	orr.w	r3, r3, #2
 8001940:	64d3      	str	r3, [r2, #76]	@ 0x4c
 8001942:	4b0e      	ldr	r3, [pc, #56]	@ (800197c <_ZL12MX_GPIO_Initv+0x74>)
 8001944:	6cdb      	ldr	r3, [r3, #76]	@ 0x4c
 8001946:	f003 0302 	and.w	r3, r3, #2
 800194a:	607b      	str	r3, [r7, #4]
 800194c:	687b      	ldr	r3, [r7, #4]

  /*Configure GPIO pin Output Level */
  HAL_GPIO_WritePin(GPIOB, GPIO_PIN_0|GPIO_PIN_6|GPIO_PIN_7, GPIO_PIN_RESET);
 800194e:	2200      	movs	r2, #0
 8001950:	21c1      	movs	r1, #193	@ 0xc1
 8001952:	480b      	ldr	r0, [pc, #44]	@ (8001980 <_ZL12MX_GPIO_Initv+0x78>)
 8001954:	f000 fbd6 	bl	8002104 <HAL_GPIO_WritePin>

  /*Configure GPIO pins : PB0 PB6 PB7 */
  GPIO_InitStruct.Pin = GPIO_PIN_0|GPIO_PIN_6|GPIO_PIN_7;
 8001958:	23c1      	movs	r3, #193	@ 0xc1
 800195a:	60fb      	str	r3, [r7, #12]
  GPIO_InitStruct.Mode = GPIO_MODE_OUTPUT_PP;
 800195c:	2301      	movs	r3, #1
 800195e:	613b      	str	r3, [r7, #16]
  GPIO_InitStruct.Pull = GPIO_NOPULL;
 8001960:	2300      	movs	r3, #0
 8001962:	617b      	str	r3, [r7, #20]
  GPIO_InitStruct.Speed = GPIO_SPEED_FREQ_LOW;
 8001964:	2300      	movs	r3, #0
 8001966:	61bb      	str	r3, [r7, #24]
  HAL_GPIO_Init(GPIOB, &GPIO_InitStruct);
 8001968:	f107 030c 	add.w	r3, r7, #12
 800196c:	4619      	mov	r1, r3
 800196e:	4804      	ldr	r0, [pc, #16]	@ (8001980 <_ZL12MX_GPIO_Initv+0x78>)
 8001970:	f000 fa5e 	bl	8001e30 <HAL_GPIO_Init>

/* USER CODE BEGIN MX_GPIO_Init_2 */
/* USER CODE END MX_GPIO_Init_2 */
}
 8001974:	bf00      	nop
 8001976:	3720      	adds	r7, #32
 8001978:	46bd      	mov	sp, r7
 800197a:	bd80      	pop	{r7, pc}
 800197c:	40021000 	.word	0x40021000
 8001980:	48000400 	.word	0x48000400

08001984 <Error_Handler>:
/**
  * @brief  This function is executed in case of error occurrence.
  * @retval None
  */
void Error_Handler(void)
{
 8001984:	b480      	push	{r7}
 8001986:	af00      	add	r7, sp, #0
  \details Disables IRQ interrupts by setting the I-bit in the CPSR.
           Can only be executed in Privileged modes.
 */
__STATIC_FORCEINLINE void __disable_irq(void)
{
  __ASM volatile ("cpsid i" : : : "memory");
 8001988:	b672      	cpsid	i
}
 800198a:	bf00      	nop
  /* USER CODE BEGIN Error_Handler_Debug */
  /* User can add his own implementation to report the HAL error return state */
  __disable_irq();
  while (1)
 800198c:	bf00      	nop
 800198e:	e7fd      	b.n	800198c <Error_Handler+0x8>

08001990 <HAL_MspInit>:
/* USER CODE END 0 */
/**
  * Initializes the Global MSP.
  */
void HAL_MspInit(void)
{
 8001990:	b480      	push	{r7}
 8001992:	b083      	sub	sp, #12
 8001994:	af00      	add	r7, sp, #0

  /* USER CODE BEGIN MspInit 0 */

  /* USER CODE END MspInit 0 */

  __HAL_RCC_SYSCFG_CLK_ENABLE();
 8001996:	4b0f      	ldr	r3, [pc, #60]	@ (80019d4 <HAL_MspInit+0x44>)
 8001998:	6e1b      	ldr	r3, [r3, #96]	@ 0x60
 800199a:	4a0e      	ldr	r2, [pc, #56]	@ (80019d4 <HAL_MspInit+0x44>)
 800199c:	f043 0301 	orr.w	r3, r3, #1
 80019a0:	6613      	str	r3, [r2, #96]	@ 0x60
 80019a2:	4b0c      	ldr	r3, [pc, #48]	@ (80019d4 <HAL_MspInit+0x44>)
 80019a4:	6e1b      	ldr	r3, [r3, #96]	@ 0x60
 80019a6:	f003 0301 	and.w	r3, r3, #1
 80019aa:	607b      	str	r3, [r7, #4]
 80019ac:	687b      	ldr	r3, [r7, #4]
  __HAL_RCC_PWR_CLK_ENABLE();
 80019ae:	4b09      	ldr	r3, [pc, #36]	@ (80019d4 <HAL_MspInit+0x44>)
 80019b0:	6d9b      	ldr	r3, [r3, #88]	@ 0x58
 80019b2:	4a08      	ldr	r2, [pc, #32]	@ (80019d4 <HAL_MspInit+0x44>)
 80019b4:	f043 5380 	orr.w	r3, r3, #268435456	@ 0x10000000
 80019b8:	6593      	str	r3, [r2, #88]	@ 0x58
 80019ba:	4b06      	ldr	r3, [pc, #24]	@ (80019d4 <HAL_MspInit+0x44>)
 80019bc:	6d9b      	ldr	r3, [r3, #88]	@ 0x58
 80019be:	f003 5380 	and.w	r3, r3, #268435456	@ 0x10000000
 80019c2:	603b      	str	r3, [r7, #0]
 80019c4:	683b      	ldr	r3, [r7, #0]
  /* System interrupt init*/

  /* USER CODE BEGIN MspInit 1 */

  /* USER CODE END MspInit 1 */
}
 80019c6:	bf00      	nop
 80019c8:	370c      	adds	r7, #12
 80019ca:	46bd      	mov	sp, r7
 80019cc:	f85d 7b04 	ldr.w	r7, [sp], #4
 80019d0:	4770      	bx	lr
 80019d2:	bf00      	nop
 80019d4:	40021000 	.word	0x40021000

080019d8 <HAL_SPI_MspInit>:
* This function configures the hardware resources used in this example
* @param hspi: SPI handle pointer
* @retval None
*/
void HAL_SPI_MspInit(SPI_HandleTypeDef* hspi)
{
 80019d8:	b580      	push	{r7, lr}
 80019da:	b08a      	sub	sp, #40	@ 0x28
 80019dc:	af00      	add	r7, sp, #0
 80019de:	6078      	str	r0, [r7, #4]
  GPIO_InitTypeDef GPIO_InitStruct = {0};
 80019e0:	f107 0314 	add.w	r3, r7, #20
 80019e4:	2200      	movs	r2, #0
 80019e6:	601a      	str	r2, [r3, #0]
 80019e8:	605a      	str	r2, [r3, #4]
 80019ea:	609a      	str	r2, [r3, #8]
 80019ec:	60da      	str	r2, [r3, #12]
 80019ee:	611a      	str	r2, [r3, #16]
  if(hspi->Instance==SPI1)
 80019f0:	687b      	ldr	r3, [r7, #4]
 80019f2:	681b      	ldr	r3, [r3, #0]
 80019f4:	4a17      	ldr	r2, [pc, #92]	@ (8001a54 <HAL_SPI_MspInit+0x7c>)
 80019f6:	4293      	cmp	r3, r2
 80019f8:	d128      	bne.n	8001a4c <HAL_SPI_MspInit+0x74>
  {
  /* USER CODE BEGIN SPI1_MspInit 0 */

  /* USER CODE END SPI1_MspInit 0 */
    /* Peripheral clock enable */
    __HAL_RCC_SPI1_CLK_ENABLE();
 80019fa:	4b17      	ldr	r3, [pc, #92]	@ (8001a58 <HAL_SPI_MspInit+0x80>)
 80019fc:	6e1b      	ldr	r3, [r3, #96]	@ 0x60
 80019fe:	4a16      	ldr	r2, [pc, #88]	@ (8001a58 <HAL_SPI_MspInit+0x80>)
 8001a00:	f443 5380 	orr.w	r3, r3, #4096	@ 0x1000
 8001a04:	6613      	str	r3, [r2, #96]	@ 0x60
 8001a06:	4b14      	ldr	r3, [pc, #80]	@ (8001a58 <HAL_SPI_MspInit+0x80>)
 8001a08:	6e1b      	ldr	r3, [r3, #96]	@ 0x60
 8001a0a:	f403 5380 	and.w	r3, r3, #4096	@ 0x1000
 8001a0e:	613b      	str	r3, [r7, #16]
 8001a10:	693b      	ldr	r3, [r7, #16]

    __HAL_RCC_GPIOA_CLK_ENABLE();
 8001a12:	4b11      	ldr	r3, [pc, #68]	@ (8001a58 <HAL_SPI_MspInit+0x80>)
 8001a14:	6cdb      	ldr	r3, [r3, #76]	@ 0x4c
 8001a16:	4a10      	ldr	r2, [pc, #64]	@ (8001a58 <HAL_SPI_MspInit+0x80>)
 8001a18:	f043 0301 	orr.w	r3, r3, #1
 8001a1c:	64d3      	str	r3, [r2, #76]	@ 0x4c
 8001a1e:	4b0e      	ldr	r3, [pc, #56]	@ (8001a58 <HAL_SPI_MspInit+0x80>)
 8001a20:	6cdb      	ldr	r3, [r3, #76]	@ 0x4c
 8001a22:	f003 0301 	and.w	r3, r3, #1
 8001a26:	60fb      	str	r3, [r7, #12]
 8001a28:	68fb      	ldr	r3, [r7, #12]
    /**SPI1 GPIO Configuration
    PA1     ------> SPI1_SCK
    PA7     ------> SPI1_MOSI
    */
    GPIO_InitStruct.Pin = GPIO_PIN_1|GPIO_PIN_7;
 8001a2a:	2382      	movs	r3, #130	@ 0x82
 8001a2c:	617b      	str	r3, [r7, #20]
    GPIO_InitStruct.Mode = GPIO_MODE_AF_PP;
 8001a2e:	2302      	movs	r3, #2
 8001a30:	61bb      	str	r3, [r7, #24]
    GPIO_InitStruct.Pull = GPIO_NOPULL;
 8001a32:	2300      	movs	r3, #0
 8001a34:	61fb      	str	r3, [r7, #28]
    GPIO_InitStruct.Speed = GPIO_SPEED_FREQ_VERY_HIGH;
 8001a36:	2303      	movs	r3, #3
 8001a38:	623b      	str	r3, [r7, #32]
    GPIO_InitStruct.Alternate = GPIO_AF5_SPI1;
 8001a3a:	2305      	movs	r3, #5
 8001a3c:	627b      	str	r3, [r7, #36]	@ 0x24
    HAL_GPIO_Init(GPIOA, &GPIO_InitStruct);
 8001a3e:	f107 0314 	add.w	r3, r7, #20
 8001a42:	4619      	mov	r1, r3
 8001a44:	f04f 4090 	mov.w	r0, #1207959552	@ 0x48000000
 8001a48:	f000 f9f2 	bl	8001e30 <HAL_GPIO_Init>
  /* USER CODE BEGIN SPI1_MspInit 1 */

  /* USER CODE END SPI1_MspInit 1 */
  }

}
 8001a4c:	bf00      	nop
 8001a4e:	3728      	adds	r7, #40	@ 0x28
 8001a50:	46bd      	mov	sp, r7
 8001a52:	bd80      	pop	{r7, pc}
 8001a54:	40013000 	.word	0x40013000
 8001a58:	40021000 	.word	0x40021000

08001a5c <NMI_Handler>:
/******************************************************************************/
/**
  * @brief This function handles Non maskable interrupt.
  */
void NMI_Handler(void)
{
 8001a5c:	b480      	push	{r7}
 8001a5e:	af00      	add	r7, sp, #0
  /* USER CODE BEGIN NonMaskableInt_IRQn 0 */

  /* USER CODE END NonMaskableInt_IRQn 0 */
  /* USER CODE BEGIN NonMaskableInt_IRQn 1 */
   while (1)
 8001a60:	bf00      	nop
 8001a62:	e7fd      	b.n	8001a60 <NMI_Handler+0x4>

08001a64 <HardFault_Handler>:

/**
  * @brief This function handles Hard fault interrupt.
  */
void HardFault_Handler(void)
{
 8001a64:	b480      	push	{r7}
 8001a66:	af00      	add	r7, sp, #0
  /* USER CODE BEGIN HardFault_IRQn 0 */

  /* USER CODE END HardFault_IRQn 0 */
  while (1)
 8001a68:	bf00      	nop
 8001a6a:	e7fd      	b.n	8001a68 <HardFault_Handler+0x4>

08001a6c <MemManage_Handler>:

/**
  * @brief This function handles Memory management fault.
  */
void MemManage_Handler(void)
{
 8001a6c:	b480      	push	{r7}
 8001a6e:	af00      	add	r7, sp, #0
  /* USER CODE BEGIN MemoryManagement_IRQn 0 */

  /* USER CODE END MemoryManagement_IRQn 0 */
  while (1)
 8001a70:	bf00      	nop
 8001a72:	e7fd      	b.n	8001a70 <MemManage_Handler+0x4>

08001a74 <BusFault_Handler>:

/**
  * @brief This function handles Prefetch fault, memory access fault.
  */
void BusFault_Handler(void)
{
 8001a74:	b480      	push	{r7}
 8001a76:	af00      	add	r7, sp, #0
  /* USER CODE BEGIN BusFault_IRQn 0 */

  /* USER CODE END BusFault_IRQn 0 */
  while (1)
 8001a78:	bf00      	nop
 8001a7a:	e7fd      	b.n	8001a78 <BusFault_Handler+0x4>

08001a7c <UsageFault_Handler>:

/**
  * @brief This function handles Undefined instruction or illegal state.
  */
void UsageFault_Handler(void)
{
 8001a7c:	b480      	push	{r7}
 8001a7e:	af00      	add	r7, sp, #0
  /* USER CODE BEGIN UsageFault_IRQn 0 */

  /* USER CODE END UsageFault_IRQn 0 */
  while (1)
 8001a80:	bf00      	nop
 8001a82:	e7fd      	b.n	8001a80 <UsageFault_Handler+0x4>

08001a84 <SVC_Handler>:

/**
  * @brief This function handles System service call via SWI instruction.
  */
void SVC_Handler(void)
{
 8001a84:	b480      	push	{r7}
 8001a86:	af00      	add	r7, sp, #0

  /* USER CODE END SVCall_IRQn 0 */
  /* USER CODE BEGIN SVCall_IRQn 1 */

  /* USER CODE END SVCall_IRQn 1 */
}
 8001a88:	bf00      	nop
 8001a8a:	46bd      	mov	sp, r7
 8001a8c:	f85d 7b04 	ldr.w	r7, [sp], #4
 8001a90:	4770      	bx	lr

08001a92 <DebugMon_Handler>:

/**
  * @brief This function handles Debug monitor.
  */
void DebugMon_Handler(void)
{
 8001a92:	b480      	push	{r7}
 8001a94:	af00      	add	r7, sp, #0

  /* USER CODE END DebugMonitor_IRQn 0 */
  /* USER CODE BEGIN DebugMonitor_IRQn 1 */

  /* USER CODE END DebugMonitor_IRQn 1 */
}
 8001a96:	bf00      	nop
 8001a98:	46bd      	mov	sp, r7
 8001a9a:	f85d 7b04 	ldr.w	r7, [sp], #4
 8001a9e:	4770      	bx	lr

08001aa0 <PendSV_Handler>:

/**
  * @brief This function handles Pendable request for system service.
  */
void PendSV_Handler(void)
{
 8001aa0:	b480      	push	{r7}
 8001aa2:	af00      	add	r7, sp, #0

  /* USER CODE END PendSV_IRQn 0 */
  /* USER CODE BEGIN PendSV_IRQn 1 */

  /* USER CODE END PendSV_IRQn 1 */
}
 8001aa4:	bf00      	nop
 8001aa6:	46bd      	mov	sp, r7
 8001aa8:	f85d 7b04 	ldr.w	r7, [sp], #4
 8001aac:	4770      	bx	lr

08001aae <SysTick_Handler>:

/**
  * @brief This function handles System tick timer.
  */
void SysTick_Handler(void)
{
 8001aae:	b580      	push	{r7, lr}
 8001ab0:	af00      	add	r7, sp, #0
  /* USER CODE BEGIN SysTick_IRQn 0 */

  /* USER CODE END SysTick_IRQn 0 */
  HAL_IncTick();
 8001ab2:	f000 f893 	bl	8001bdc <HAL_IncTick>
  /* USER CODE BEGIN SysTick_IRQn 1 */

  /* USER CODE END SysTick_IRQn 1 */
}
 8001ab6:	bf00      	nop
 8001ab8:	bd80      	pop	{r7, pc}
	...

08001abc <SystemInit>:
  * @brief  Setup the microcontroller system.
  * @retval None
  */

void SystemInit(void)
{
 8001abc:	b480      	push	{r7}
 8001abe:	af00      	add	r7, sp, #0
  SCB->VTOR = VECT_TAB_BASE_ADDRESS | VECT_TAB_OFFSET;
#endif

  /* FPU settings ------------------------------------------------------------*/
#if (__FPU_PRESENT == 1) && (__FPU_USED == 1)
  SCB->CPACR |= ((3UL << 20U)|(3UL << 22U));  /* set CP10 and CP11 Full Access */
 8001ac0:	4b06      	ldr	r3, [pc, #24]	@ (8001adc <SystemInit+0x20>)
 8001ac2:	f8d3 3088 	ldr.w	r3, [r3, #136]	@ 0x88
 8001ac6:	4a05      	ldr	r2, [pc, #20]	@ (8001adc <SystemInit+0x20>)
 8001ac8:	f443 0370 	orr.w	r3, r3, #15728640	@ 0xf00000
 8001acc:	f8c2 3088 	str.w	r3, [r2, #136]	@ 0x88
#endif
}
 8001ad0:	bf00      	nop
 8001ad2:	46bd      	mov	sp, r7
 8001ad4:	f85d 7b04 	ldr.w	r7, [sp], #4
 8001ad8:	4770      	bx	lr
 8001ada:	bf00      	nop
 8001adc:	e000ed00 	.word	0xe000ed00

08001ae0 <Reset_Handler>:

    .section	.text.Reset_Handler
	.weak	Reset_Handler
	.type	Reset_Handler, %function
Reset_Handler:
       ldr   sp, =_estack    /* Set stack pointer */
 8001ae0:	f8df d034 	ldr.w	sp, [pc, #52]	@ 8001b18 <LoopForever+0x2>

/* Call the clock system initialization function.*/
    bl  SystemInit
 8001ae4:	f7ff ffea 	bl	8001abc <SystemInit>

/* Copy the data segment initializers from flash to SRAM */
  ldr r0, =_sdata
 8001ae8:	480c      	ldr	r0, [pc, #48]	@ (8001b1c <LoopForever+0x6>)
  ldr r1, =_edata
 8001aea:	490d      	ldr	r1, [pc, #52]	@ (8001b20 <LoopForever+0xa>)
  ldr r2, =_sidata
 8001aec:	4a0d      	ldr	r2, [pc, #52]	@ (8001b24 <LoopForever+0xe>)
  movs r3, #0
 8001aee:	2300      	movs	r3, #0
  b LoopCopyDataInit
 8001af0:	e002      	b.n	8001af8 <LoopCopyDataInit>

08001af2 <CopyDataInit>:

CopyDataInit:
  ldr r4, [r2, r3]
 8001af2:	58d4      	ldr	r4, [r2, r3]
  str r4, [r0, r3]
 8001af4:	50c4      	str	r4, [r0, r3]
  adds r3, r3, #4
 8001af6:	3304      	adds	r3, #4

08001af8 <LoopCopyDataInit>:

LoopCopyDataInit:
  adds r4, r0, r3
 8001af8:	18c4      	adds	r4, r0, r3
  cmp r4, r1
 8001afa:	428c      	cmp	r4, r1
  bcc CopyDataInit
 8001afc:	d3f9      	bcc.n	8001af2 <CopyDataInit>
  
/* Zero fill the bss segment. */
  ldr r2, =_sbss
 8001afe:	4a0a      	ldr	r2, [pc, #40]	@ (8001b28 <LoopForever+0x12>)
  ldr r4, =_ebss
 8001b00:	4c0a      	ldr	r4, [pc, #40]	@ (8001b2c <LoopForever+0x16>)
  movs r3, #0
 8001b02:	2300      	movs	r3, #0
  b LoopFillZerobss
 8001b04:	e001      	b.n	8001b0a <LoopFillZerobss>

08001b06 <FillZerobss>:

FillZerobss:
  str  r3, [r2]
 8001b06:	6013      	str	r3, [r2, #0]
  adds r2, r2, #4
 8001b08:	3204      	adds	r2, #4

08001b0a <LoopFillZerobss>:

LoopFillZerobss:
  cmp r2, r4
 8001b0a:	42a2      	cmp	r2, r4
  bcc FillZerobss
 8001b0c:	d3fb      	bcc.n	8001b06 <FillZerobss>

/* Call static constructors */
    bl __libc_init_array
 8001b0e:	f002 fc89 	bl	8004424 <__libc_init_array>
/* Call the application's entry point.*/
	bl	main
 8001b12:	f7ff fdd7 	bl	80016c4 <main>

08001b16 <LoopForever>:

LoopForever:
    b LoopForever
 8001b16:	e7fe      	b.n	8001b16 <LoopForever>
       ldr   sp, =_estack    /* Set stack pointer */
 8001b18:	20010000 	.word	0x20010000
  ldr r0, =_sdata
 8001b1c:	20000000 	.word	0x20000000
  ldr r1, =_edata
 8001b20:	2000c910 	.word	0x2000c910
  ldr r2, =_sidata
 8001b24:	08004520 	.word	0x08004520
  ldr r2, =_sbss
 8001b28:	2000c910 	.word	0x2000c910
  ldr r4, =_ebss
 8001b2c:	2000cad0 	.word	0x2000cad0

08001b30 <ADC1_IRQHandler>:
 * @retval : None
*/
    .section	.text.Default_Handler,"ax",%progbits
Default_Handler:
Infinite_Loop:
	b	Infinite_Loop
 8001b30:	e7fe      	b.n	8001b30 <ADC1_IRQHandler>

08001b32 <HAL_Init>:
  *         each 1ms in the SysTick_Handler() interrupt handler.
  *
  * @retval HAL status
  */
HAL_StatusTypeDef HAL_Init(void)
{
 8001b32:	b580      	push	{r7, lr}
 8001b34:	b082      	sub	sp, #8
 8001b36:	af00      	add	r7, sp, #0
  HAL_StatusTypeDef  status = HAL_OK;
 8001b38:	2300      	movs	r3, #0
 8001b3a:	71fb      	strb	r3, [r7, #7]
#if (PREFETCH_ENABLE != 0)
  __HAL_FLASH_PREFETCH_BUFFER_ENABLE();
#endif /* PREFETCH_ENABLE */

  /* Set Interrupt Group Priority */
  HAL_NVIC_SetPriorityGrouping(NVIC_PRIORITYGROUP_4);
 8001b3c:	2003      	movs	r0, #3
 8001b3e:	f000 f943 	bl	8001dc8 <HAL_NVIC_SetPriorityGrouping>

  /* Use SysTick as time base source and configure 1ms tick (default clock after Reset is MSI) */
  if (HAL_InitTick(TICK_INT_PRIORITY) != HAL_OK)
 8001b42:	200f      	movs	r0, #15
 8001b44:	f000 f80e 	bl	8001b64 <HAL_InitTick>
 8001b48:	4603      	mov	r3, r0
 8001b4a:	2b00      	cmp	r3, #0
 8001b4c:	d002      	beq.n	8001b54 <HAL_Init+0x22>
  {
    status = HAL_ERROR;
 8001b4e:	2301      	movs	r3, #1
 8001b50:	71fb      	strb	r3, [r7, #7]
 8001b52:	e001      	b.n	8001b58 <HAL_Init+0x26>
  }
  else
  {
    /* Init the low level hardware */
    HAL_MspInit();
 8001b54:	f7ff ff1c 	bl	8001990 <HAL_MspInit>
  }

  /* Return function status */
  return status;
 8001b58:	79fb      	ldrb	r3, [r7, #7]
}
 8001b5a:	4618      	mov	r0, r3
 8001b5c:	3708      	adds	r7, #8
 8001b5e:	46bd      	mov	sp, r7
 8001b60:	bd80      	pop	{r7, pc}
	...

08001b64 <HAL_InitTick>:
  *       implementation  in user file.
  * @param TickPriority  Tick interrupt priority.
  * @retval HAL status
  */
__weak HAL_StatusTypeDef HAL_InitTick(uint32_t TickPriority)
{
 8001b64:	b580      	push	{r7, lr}
 8001b66:	b084      	sub	sp, #16
 8001b68:	af00      	add	r7, sp, #0
 8001b6a:	6078      	str	r0, [r7, #4]
  HAL_StatusTypeDef  status = HAL_OK;
 8001b6c:	2300      	movs	r3, #0
 8001b6e:	73fb      	strb	r3, [r7, #15]

  /* Check uwTickFreq for MisraC 2012 (even if uwTickFreq is a enum type that doesn't take the value zero)*/
  if ((uint32_t)uwTickFreq != 0U)
 8001b70:	4b17      	ldr	r3, [pc, #92]	@ (8001bd0 <HAL_InitTick+0x6c>)
 8001b72:	781b      	ldrb	r3, [r3, #0]
 8001b74:	2b00      	cmp	r3, #0
 8001b76:	d023      	beq.n	8001bc0 <HAL_InitTick+0x5c>
  {
    /*Configure the SysTick to have interrupt in 1ms time basis*/
    if (HAL_SYSTICK_Config(SystemCoreClock / (1000U / (uint32_t)uwTickFreq)) == 0U)
 8001b78:	4b16      	ldr	r3, [pc, #88]	@ (8001bd4 <HAL_InitTick+0x70>)
 8001b7a:	681a      	ldr	r2, [r3, #0]
 8001b7c:	4b14      	ldr	r3, [pc, #80]	@ (8001bd0 <HAL_InitTick+0x6c>)
 8001b7e:	781b      	ldrb	r3, [r3, #0]
 8001b80:	4619      	mov	r1, r3
 8001b82:	f44f 737a 	mov.w	r3, #1000	@ 0x3e8
 8001b86:	fbb3 f3f1 	udiv	r3, r3, r1
 8001b8a:	fbb2 f3f3 	udiv	r3, r2, r3
 8001b8e:	4618      	mov	r0, r3
 8001b90:	f000 f941 	bl	8001e16 <HAL_SYSTICK_Config>
 8001b94:	4603      	mov	r3, r0
 8001b96:	2b00      	cmp	r3, #0
 8001b98:	d10f      	bne.n	8001bba <HAL_InitTick+0x56>
    {
      /* Configure the SysTick IRQ priority */
      if (TickPriority < (1UL << __NVIC_PRIO_BITS))
 8001b9a:	687b      	ldr	r3, [r7, #4]
 8001b9c:	2b0f      	cmp	r3, #15
 8001b9e:	d809      	bhi.n	8001bb4 <HAL_InitTick+0x50>
      {
        HAL_NVIC_SetPriority(SysTick_IRQn, TickPriority, 0U);
 8001ba0:	2200      	movs	r2, #0
 8001ba2:	6879      	ldr	r1, [r7, #4]
 8001ba4:	f04f 30ff 	mov.w	r0, #4294967295
 8001ba8:	f000 f919 	bl	8001dde <HAL_NVIC_SetPriority>
        uwTickPrio = TickPriority;
 8001bac:	4a0a      	ldr	r2, [pc, #40]	@ (8001bd8 <HAL_InitTick+0x74>)
 8001bae:	687b      	ldr	r3, [r7, #4]
 8001bb0:	6013      	str	r3, [r2, #0]
 8001bb2:	e007      	b.n	8001bc4 <HAL_InitTick+0x60>
      }
      else
      {
        status = HAL_ERROR;
 8001bb4:	2301      	movs	r3, #1
 8001bb6:	73fb      	strb	r3, [r7, #15]
 8001bb8:	e004      	b.n	8001bc4 <HAL_InitTick+0x60>
      }
    }
    else
    {
      status = HAL_ERROR;
 8001bba:	2301      	movs	r3, #1
 8001bbc:	73fb      	strb	r3, [r7, #15]
 8001bbe:	e001      	b.n	8001bc4 <HAL_InitTick+0x60>
    }
  }
  else
  {
    status = HAL_ERROR;
 8001bc0:	2301      	movs	r3, #1
 8001bc2:	73fb      	strb	r3, [r7, #15]
  }

  /* Return function status */
  return status;
 8001bc4:	7bfb      	ldrb	r3, [r7, #15]
}
 8001bc6:	4618      	mov	r0, r3
 8001bc8:	3710      	adds	r7, #16
 8001bca:	46bd      	mov	sp, r7
 8001bcc:	bd80      	pop	{r7, pc}
 8001bce:	bf00      	nop
 8001bd0:	2000c8a8 	.word	0x2000c8a8
 8001bd4:	2000c8a0 	.word	0x2000c8a0
 8001bd8:	2000c8a4 	.word	0x2000c8a4

08001bdc <HAL_IncTick>:
 * @note This function is declared as __weak to be overwritten in case of other
  *      implementations in user file.
  * @retval None
  */
__weak void HAL_IncTick(void)
{
 8001bdc:	b480      	push	{r7}
 8001bde:	af00      	add	r7, sp, #0
  uwTick += (uint32_t)uwTickFreq;
 8001be0:	4b06      	ldr	r3, [pc, #24]	@ (8001bfc <HAL_IncTick+0x20>)
 8001be2:	781b      	ldrb	r3, [r3, #0]
 8001be4:	461a      	mov	r2, r3
 8001be6:	4b06      	ldr	r3, [pc, #24]	@ (8001c00 <HAL_IncTick+0x24>)
 8001be8:	681b      	ldr	r3, [r3, #0]
 8001bea:	4413      	add	r3, r2
 8001bec:	4a04      	ldr	r2, [pc, #16]	@ (8001c00 <HAL_IncTick+0x24>)
 8001bee:	6013      	str	r3, [r2, #0]
}
 8001bf0:	bf00      	nop
 8001bf2:	46bd      	mov	sp, r7
 8001bf4:	f85d 7b04 	ldr.w	r7, [sp], #4
 8001bf8:	4770      	bx	lr
 8001bfa:	bf00      	nop
 8001bfc:	2000c8a8 	.word	0x2000c8a8
 8001c00:	2000c994 	.word	0x2000c994

08001c04 <HAL_GetTick>:
  * @note This function is declared as __weak to be overwritten in case of other
  *       implementations in user file.
  * @retval tick value
  */
__weak uint32_t HAL_GetTick(void)
{
 8001c04:	b480      	push	{r7}
 8001c06:	af00      	add	r7, sp, #0
  return uwTick;
 8001c08:	4b03      	ldr	r3, [pc, #12]	@ (8001c18 <HAL_GetTick+0x14>)
 8001c0a:	681b      	ldr	r3, [r3, #0]
}
 8001c0c:	4618      	mov	r0, r3
 8001c0e:	46bd      	mov	sp, r7
 8001c10:	f85d 7b04 	ldr.w	r7, [sp], #4
 8001c14:	4770      	bx	lr
 8001c16:	bf00      	nop
 8001c18:	2000c994 	.word	0x2000c994

08001c1c <HAL_Delay>:
  *       implementations in user file.
  * @param Delay  specifies the delay time length, in milliseconds.
  * @retval None
  */
__weak void HAL_Delay(uint32_t Delay)
{
 8001c1c:	b580      	push	{r7, lr}
 8001c1e:	b084      	sub	sp, #16
 8001c20:	af00      	add	r7, sp, #0
 8001c22:	6078      	str	r0, [r7, #4]
  uint32_t tickstart = HAL_GetTick();
 8001c24:	f7ff ffee 	bl	8001c04 <HAL_GetTick>
 8001c28:	60b8      	str	r0, [r7, #8]
  uint32_t wait = Delay;
 8001c2a:	687b      	ldr	r3, [r7, #4]
 8001c2c:	60fb      	str	r3, [r7, #12]

  /* Add a period to guaranty minimum wait */
  if (wait < HAL_MAX_DELAY)
 8001c2e:	68fb      	ldr	r3, [r7, #12]
 8001c30:	f1b3 3fff 	cmp.w	r3, #4294967295
 8001c34:	d005      	beq.n	8001c42 <HAL_Delay+0x26>
  {
    wait += (uint32_t)uwTickFreq;
 8001c36:	4b0a      	ldr	r3, [pc, #40]	@ (8001c60 <HAL_Delay+0x44>)
 8001c38:	781b      	ldrb	r3, [r3, #0]
 8001c3a:	461a      	mov	r2, r3
 8001c3c:	68fb      	ldr	r3, [r7, #12]
 8001c3e:	4413      	add	r3, r2
 8001c40:	60fb      	str	r3, [r7, #12]
  }

  while ((HAL_GetTick() - tickstart) < wait)
 8001c42:	bf00      	nop
 8001c44:	f7ff ffde 	bl	8001c04 <HAL_GetTick>
 8001c48:	4602      	mov	r2, r0
 8001c4a:	68bb      	ldr	r3, [r7, #8]
 8001c4c:	1ad3      	subs	r3, r2, r3
 8001c4e:	68fa      	ldr	r2, [r7, #12]
 8001c50:	429a      	cmp	r2, r3
 8001c52:	d8f7      	bhi.n	8001c44 <HAL_Delay+0x28>
  {
  }
}
 8001c54:	bf00      	nop
 8001c56:	bf00      	nop
 8001c58:	3710      	adds	r7, #16
 8001c5a:	46bd      	mov	sp, r7
 8001c5c:	bd80      	pop	{r7, pc}
 8001c5e:	bf00      	nop
 8001c60:	2000c8a8 	.word	0x2000c8a8

08001c64 <__NVIC_SetPriorityGrouping>:
           In case of a conflict between priority grouping and available
           priority bits (__NVIC_PRIO_BITS), the smallest possible priority group is set.
  \param [in]      PriorityGroup  Priority grouping field.
 */
__STATIC_INLINE void __NVIC_SetPriorityGrouping(uint32_t PriorityGroup)
{
 8001c64:	b480      	push	{r7}
 8001c66:	b085      	sub	sp, #20
 8001c68:	af00      	add	r7, sp, #0
 8001c6a:	6078      	str	r0, [r7, #4]
  uint32_t reg_value;
  uint32_t PriorityGroupTmp = (PriorityGroup & (uint32_t)0x07UL);             /* only values 0..7 are used          */
 8001c6c:	687b      	ldr	r3, [r7, #4]
 8001c6e:	f003 0307 	and.w	r3, r3, #7
 8001c72:	60fb      	str	r3, [r7, #12]

  reg_value  =  SCB->AIRCR;                                                   /* read old register configuration    */
 8001c74:	4b0c      	ldr	r3, [pc, #48]	@ (8001ca8 <__NVIC_SetPriorityGrouping+0x44>)
 8001c76:	68db      	ldr	r3, [r3, #12]
 8001c78:	60bb      	str	r3, [r7, #8]
  reg_value &= ~((uint32_t)(SCB_AIRCR_VECTKEY_Msk | SCB_AIRCR_PRIGROUP_Msk)); /* clear bits to change               */
 8001c7a:	68ba      	ldr	r2, [r7, #8]
 8001c7c:	f64f 03ff 	movw	r3, #63743	@ 0xf8ff
 8001c80:	4013      	ands	r3, r2
 8001c82:	60bb      	str	r3, [r7, #8]
  reg_value  =  (reg_value                                   |
                ((uint32_t)0x5FAUL << SCB_AIRCR_VECTKEY_Pos) |
                (PriorityGroupTmp << SCB_AIRCR_PRIGROUP_Pos)  );              /* Insert write key and priority group */
 8001c84:	68fb      	ldr	r3, [r7, #12]
 8001c86:	021a      	lsls	r2, r3, #8
                ((uint32_t)0x5FAUL << SCB_AIRCR_VECTKEY_Pos) |
 8001c88:	68bb      	ldr	r3, [r7, #8]
 8001c8a:	4313      	orrs	r3, r2
  reg_value  =  (reg_value                                   |
 8001c8c:	f043 63bf 	orr.w	r3, r3, #100139008	@ 0x5f80000
 8001c90:	f443 3300 	orr.w	r3, r3, #131072	@ 0x20000
 8001c94:	60bb      	str	r3, [r7, #8]
  SCB->AIRCR =  reg_value;
 8001c96:	4a04      	ldr	r2, [pc, #16]	@ (8001ca8 <__NVIC_SetPriorityGrouping+0x44>)
 8001c98:	68bb      	ldr	r3, [r7, #8]
 8001c9a:	60d3      	str	r3, [r2, #12]
}
 8001c9c:	bf00      	nop
 8001c9e:	3714      	adds	r7, #20
 8001ca0:	46bd      	mov	sp, r7
 8001ca2:	f85d 7b04 	ldr.w	r7, [sp], #4
 8001ca6:	4770      	bx	lr
 8001ca8:	e000ed00 	.word	0xe000ed00

08001cac <__NVIC_GetPriorityGrouping>:
  \brief   Get Priority Grouping
  \details Reads the priority grouping field from the NVIC Interrupt Controller.
  \return                Priority grouping field (SCB->AIRCR [10:8] PRIGROUP field).
 */
__STATIC_INLINE uint32_t __NVIC_GetPriorityGrouping(void)
{
 8001cac:	b480      	push	{r7}
 8001cae:	af00      	add	r7, sp, #0
  return ((uint32_t)((SCB->AIRCR & SCB_AIRCR_PRIGROUP_Msk) >> SCB_AIRCR_PRIGROUP_Pos));
 8001cb0:	4b04      	ldr	r3, [pc, #16]	@ (8001cc4 <__NVIC_GetPriorityGrouping+0x18>)
 8001cb2:	68db      	ldr	r3, [r3, #12]
 8001cb4:	0a1b      	lsrs	r3, r3, #8
 8001cb6:	f003 0307 	and.w	r3, r3, #7
}
 8001cba:	4618      	mov	r0, r3
 8001cbc:	46bd      	mov	sp, r7
 8001cbe:	f85d 7b04 	ldr.w	r7, [sp], #4
 8001cc2:	4770      	bx	lr
 8001cc4:	e000ed00 	.word	0xe000ed00

08001cc8 <__NVIC_SetPriority>:
  \param [in]      IRQn  Interrupt number.
  \param [in]  priority  Priority to set.
  \note    The priority cannot be set for every processor exception.
 */
__STATIC_INLINE void __NVIC_SetPriority(IRQn_Type IRQn, uint32_t priority)
{
 8001cc8:	b480      	push	{r7}
 8001cca:	b083      	sub	sp, #12
 8001ccc:	af00      	add	r7, sp, #0
 8001cce:	4603      	mov	r3, r0
 8001cd0:	6039      	str	r1, [r7, #0]
 8001cd2:	71fb      	strb	r3, [r7, #7]
  if ((int32_t)(IRQn) >= 0)
 8001cd4:	f997 3007 	ldrsb.w	r3, [r7, #7]
 8001cd8:	2b00      	cmp	r3, #0
 8001cda:	db0a      	blt.n	8001cf2 <__NVIC_SetPriority+0x2a>
  {
    NVIC->IP[((uint32_t)IRQn)]               = (uint8_t)((priority << (8U - __NVIC_PRIO_BITS)) & (uint32_t)0xFFUL);
 8001cdc:	683b      	ldr	r3, [r7, #0]
 8001cde:	b2da      	uxtb	r2, r3
 8001ce0:	490c      	ldr	r1, [pc, #48]	@ (8001d14 <__NVIC_SetPriority+0x4c>)
 8001ce2:	f997 3007 	ldrsb.w	r3, [r7, #7]
 8001ce6:	0112      	lsls	r2, r2, #4
 8001ce8:	b2d2      	uxtb	r2, r2
 8001cea:	440b      	add	r3, r1
 8001cec:	f883 2300 	strb.w	r2, [r3, #768]	@ 0x300
  }
  else
  {
    SCB->SHP[(((uint32_t)IRQn) & 0xFUL)-4UL] = (uint8_t)((priority << (8U - __NVIC_PRIO_BITS)) & (uint32_t)0xFFUL);
  }
}
 8001cf0:	e00a      	b.n	8001d08 <__NVIC_SetPriority+0x40>
    SCB->SHP[(((uint32_t)IRQn) & 0xFUL)-4UL] = (uint8_t)((priority << (8U - __NVIC_PRIO_BITS)) & (uint32_t)0xFFUL);
 8001cf2:	683b      	ldr	r3, [r7, #0]
 8001cf4:	b2da      	uxtb	r2, r3
 8001cf6:	4908      	ldr	r1, [pc, #32]	@ (8001d18 <__NVIC_SetPriority+0x50>)
 8001cf8:	79fb      	ldrb	r3, [r7, #7]
 8001cfa:	f003 030f 	and.w	r3, r3, #15
 8001cfe:	3b04      	subs	r3, #4
 8001d00:	0112      	lsls	r2, r2, #4
 8001d02:	b2d2      	uxtb	r2, r2
 8001d04:	440b      	add	r3, r1
 8001d06:	761a      	strb	r2, [r3, #24]
}
 8001d08:	bf00      	nop
 8001d0a:	370c      	adds	r7, #12
 8001d0c:	46bd      	mov	sp, r7
 8001d0e:	f85d 7b04 	ldr.w	r7, [sp], #4
 8001d12:	4770      	bx	lr
 8001d14:	e000e100 	.word	0xe000e100
 8001d18:	e000ed00 	.word	0xe000ed00

08001d1c <NVIC_EncodePriority>:
  \param [in]   PreemptPriority  Preemptive priority value (starting from 0).
  \param [in]       SubPriority  Subpriority value (starting from 0).
  \return                        Encoded priority. Value can be used in the function \ref NVIC_SetPriority().
 */
__STATIC_INLINE uint32_t NVIC_EncodePriority (uint32_t PriorityGroup, uint32_t PreemptPriority, uint32_t SubPriority)
{
 8001d1c:	b480      	push	{r7}
 8001d1e:	b089      	sub	sp, #36	@ 0x24
 8001d20:	af00      	add	r7, sp, #0
 8001d22:	60f8      	str	r0, [r7, #12]
 8001d24:	60b9      	str	r1, [r7, #8]
 8001d26:	607a      	str	r2, [r7, #4]
  uint32_t PriorityGroupTmp = (PriorityGroup & (uint32_t)0x07UL);   /* only values 0..7 are used          */
 8001d28:	68fb      	ldr	r3, [r7, #12]
 8001d2a:	f003 0307 	and.w	r3, r3, #7
 8001d2e:	61fb      	str	r3, [r7, #28]
  uint32_t PreemptPriorityBits;
  uint32_t SubPriorityBits;

  PreemptPriorityBits = ((7UL - PriorityGroupTmp) > (uint32_t)(__NVIC_PRIO_BITS)) ? (uint32_t)(__NVIC_PRIO_BITS) : (uint32_t)(7UL - PriorityGroupTmp);
 8001d30:	69fb      	ldr	r3, [r7, #28]
 8001d32:	f1c3 0307 	rsb	r3, r3, #7
 8001d36:	2b04      	cmp	r3, #4
 8001d38:	bf28      	it	cs
 8001d3a:	2304      	movcs	r3, #4
 8001d3c:	61bb      	str	r3, [r7, #24]
  SubPriorityBits     = ((PriorityGroupTmp + (uint32_t)(__NVIC_PRIO_BITS)) < (uint32_t)7UL) ? (uint32_t)0UL : (uint32_t)((PriorityGroupTmp - 7UL) + (uint32_t)(__NVIC_PRIO_BITS));
 8001d3e:	69fb      	ldr	r3, [r7, #28]
 8001d40:	3304      	adds	r3, #4
 8001d42:	2b06      	cmp	r3, #6
 8001d44:	d902      	bls.n	8001d4c <NVIC_EncodePriority+0x30>
 8001d46:	69fb      	ldr	r3, [r7, #28]
 8001d48:	3b03      	subs	r3, #3
 8001d4a:	e000      	b.n	8001d4e <NVIC_EncodePriority+0x32>
 8001d4c:	2300      	movs	r3, #0
 8001d4e:	617b      	str	r3, [r7, #20]

  return (
           ((PreemptPriority & (uint32_t)((1UL << (PreemptPriorityBits)) - 1UL)) << SubPriorityBits) |
 8001d50:	f04f 32ff 	mov.w	r2, #4294967295
 8001d54:	69bb      	ldr	r3, [r7, #24]
 8001d56:	fa02 f303 	lsl.w	r3, r2, r3
 8001d5a:	43da      	mvns	r2, r3
 8001d5c:	68bb      	ldr	r3, [r7, #8]
 8001d5e:	401a      	ands	r2, r3
 8001d60:	697b      	ldr	r3, [r7, #20]
 8001d62:	409a      	lsls	r2, r3
           ((SubPriority     & (uint32_t)((1UL << (SubPriorityBits    )) - 1UL)))
 8001d64:	f04f 31ff 	mov.w	r1, #4294967295
 8001d68:	697b      	ldr	r3, [r7, #20]
 8001d6a:	fa01 f303 	lsl.w	r3, r1, r3
 8001d6e:	43d9      	mvns	r1, r3
 8001d70:	687b      	ldr	r3, [r7, #4]
 8001d72:	400b      	ands	r3, r1
           ((PreemptPriority & (uint32_t)((1UL << (PreemptPriorityBits)) - 1UL)) << SubPriorityBits) |
 8001d74:	4313      	orrs	r3, r2
         );
}
 8001d76:	4618      	mov	r0, r3
 8001d78:	3724      	adds	r7, #36	@ 0x24
 8001d7a:	46bd      	mov	sp, r7
 8001d7c:	f85d 7b04 	ldr.w	r7, [sp], #4
 8001d80:	4770      	bx	lr
	...

08001d84 <SysTick_Config>:
  \note    When the variable <b>__Vendor_SysTickConfig</b> is set to 1, then the
           function <b>SysTick_Config</b> is not included. In this case, the file <b><i>device</i>.h</b>
           must contain a vendor-specific implementation of this function.
 */
__STATIC_INLINE uint32_t SysTick_Config(uint32_t ticks)
{
 8001d84:	b580      	push	{r7, lr}
 8001d86:	b082      	sub	sp, #8
 8001d88:	af00      	add	r7, sp, #0
 8001d8a:	6078      	str	r0, [r7, #4]
  if ((ticks - 1UL) > SysTick_LOAD_RELOAD_Msk)
 8001d8c:	687b      	ldr	r3, [r7, #4]
 8001d8e:	3b01      	subs	r3, #1
 8001d90:	f1b3 7f80 	cmp.w	r3, #16777216	@ 0x1000000
 8001d94:	d301      	bcc.n	8001d9a <SysTick_Config+0x16>
  {
    return (1UL);                                                   /* Reload value impossible */
 8001d96:	2301      	movs	r3, #1
 8001d98:	e00f      	b.n	8001dba <SysTick_Config+0x36>
  }

  SysTick->LOAD  = (uint32_t)(ticks - 1UL);                         /* set reload register */
 8001d9a:	4a0a      	ldr	r2, [pc, #40]	@ (8001dc4 <SysTick_Config+0x40>)
 8001d9c:	687b      	ldr	r3, [r7, #4]
 8001d9e:	3b01      	subs	r3, #1
 8001da0:	6053      	str	r3, [r2, #4]
  NVIC_SetPriority (SysTick_IRQn, (1UL << __NVIC_PRIO_BITS) - 1UL); /* set Priority for Systick Interrupt */
 8001da2:	210f      	movs	r1, #15
 8001da4:	f04f 30ff 	mov.w	r0, #4294967295
 8001da8:	f7ff ff8e 	bl	8001cc8 <__NVIC_SetPriority>
  SysTick->VAL   = 0UL;                                             /* Load the SysTick Counter Value */
 8001dac:	4b05      	ldr	r3, [pc, #20]	@ (8001dc4 <SysTick_Config+0x40>)
 8001dae:	2200      	movs	r2, #0
 8001db0:	609a      	str	r2, [r3, #8]
  SysTick->CTRL  = SysTick_CTRL_CLKSOURCE_Msk |
 8001db2:	4b04      	ldr	r3, [pc, #16]	@ (8001dc4 <SysTick_Config+0x40>)
 8001db4:	2207      	movs	r2, #7
 8001db6:	601a      	str	r2, [r3, #0]
                   SysTick_CTRL_TICKINT_Msk   |
                   SysTick_CTRL_ENABLE_Msk;                         /* Enable SysTick IRQ and SysTick Timer */
  return (0UL);                                                     /* Function successful */
 8001db8:	2300      	movs	r3, #0
}
 8001dba:	4618      	mov	r0, r3
 8001dbc:	3708      	adds	r7, #8
 8001dbe:	46bd      	mov	sp, r7
 8001dc0:	bd80      	pop	{r7, pc}
 8001dc2:	bf00      	nop
 8001dc4:	e000e010 	.word	0xe000e010

08001dc8 <HAL_NVIC_SetPriorityGrouping>:
  * @note   When the NVIC_PriorityGroup_0 is selected, IRQ pre-emption is no more possible.
  *         The pending IRQ priority will be managed only by the subpriority.
  * @retval None
  */
void HAL_NVIC_SetPriorityGrouping(uint32_t PriorityGroup)
{
 8001dc8:	b580      	push	{r7, lr}
 8001dca:	b082      	sub	sp, #8
 8001dcc:	af00      	add	r7, sp, #0
 8001dce:	6078      	str	r0, [r7, #4]
  /* Check the parameters */
  assert_param(IS_NVIC_PRIORITY_GROUP(PriorityGroup));

  /* Set the PRIGROUP[10:8] bits according to the PriorityGroup parameter value */
  NVIC_SetPriorityGrouping(PriorityGroup);
 8001dd0:	6878      	ldr	r0, [r7, #4]
 8001dd2:	f7ff ff47 	bl	8001c64 <__NVIC_SetPriorityGrouping>
}
 8001dd6:	bf00      	nop
 8001dd8:	3708      	adds	r7, #8
 8001dda:	46bd      	mov	sp, r7
 8001ddc:	bd80      	pop	{r7, pc}

08001dde <HAL_NVIC_SetPriority>:
  *         This parameter can be a value between 0 and 15
  *         A lower priority value indicates a higher priority.
  * @retval None
  */
void HAL_NVIC_SetPriority(IRQn_Type IRQn, uint32_t PreemptPriority, uint32_t SubPriority)
{
 8001dde:	b580      	push	{r7, lr}
 8001de0:	b086      	sub	sp, #24
 8001de2:	af00      	add	r7, sp, #0
 8001de4:	4603      	mov	r3, r0
 8001de6:	60b9      	str	r1, [r7, #8]
 8001de8:	607a      	str	r2, [r7, #4]
 8001dea:	73fb      	strb	r3, [r7, #15]
  uint32_t prioritygroup = 0x00;
 8001dec:	2300      	movs	r3, #0
 8001dee:	617b      	str	r3, [r7, #20]

  /* Check the parameters */
  assert_param(IS_NVIC_SUB_PRIORITY(SubPriority));
  assert_param(IS_NVIC_PREEMPTION_PRIORITY(PreemptPriority));

  prioritygroup = NVIC_GetPriorityGrouping();
 8001df0:	f7ff ff5c 	bl	8001cac <__NVIC_GetPriorityGrouping>
 8001df4:	6178      	str	r0, [r7, #20]

  NVIC_SetPriority(IRQn, NVIC_EncodePriority(prioritygroup, PreemptPriority, SubPriority));
 8001df6:	687a      	ldr	r2, [r7, #4]
 8001df8:	68b9      	ldr	r1, [r7, #8]
 8001dfa:	6978      	ldr	r0, [r7, #20]
 8001dfc:	f7ff ff8e 	bl	8001d1c <NVIC_EncodePriority>
 8001e00:	4602      	mov	r2, r0
 8001e02:	f997 300f 	ldrsb.w	r3, [r7, #15]
 8001e06:	4611      	mov	r1, r2
 8001e08:	4618      	mov	r0, r3
 8001e0a:	f7ff ff5d 	bl	8001cc8 <__NVIC_SetPriority>
}
 8001e0e:	bf00      	nop
 8001e10:	3718      	adds	r7, #24
 8001e12:	46bd      	mov	sp, r7
 8001e14:	bd80      	pop	{r7, pc}

08001e16 <HAL_SYSTICK_Config>:
  * @param  TicksNumb: Specifies the ticks Number of ticks between two interrupts.
  * @retval status:  - 0  Function succeeded.
  *                  - 1  Function failed.
  */
uint32_t HAL_SYSTICK_Config(uint32_t TicksNumb)
{
 8001e16:	b580      	push	{r7, lr}
 8001e18:	b082      	sub	sp, #8
 8001e1a:	af00      	add	r7, sp, #0
 8001e1c:	6078      	str	r0, [r7, #4]
   return SysTick_Config(TicksNumb);
 8001e1e:	6878      	ldr	r0, [r7, #4]
 8001e20:	f7ff ffb0 	bl	8001d84 <SysTick_Config>
 8001e24:	4603      	mov	r3, r0
}
 8001e26:	4618      	mov	r0, r3
 8001e28:	3708      	adds	r7, #8
 8001e2a:	46bd      	mov	sp, r7
 8001e2c:	bd80      	pop	{r7, pc}
	...

08001e30 <HAL_GPIO_Init>:
  * @param  GPIO_Init pointer to a GPIO_InitTypeDef structure that contains
  *         the configuration information for the specified GPIO peripheral.
  * @retval None
  */
void HAL_GPIO_Init(GPIO_TypeDef  *GPIOx, GPIO_InitTypeDef *GPIO_Init)
{
 8001e30:	b480      	push	{r7}
 8001e32:	b087      	sub	sp, #28
 8001e34:	af00      	add	r7, sp, #0
 8001e36:	6078      	str	r0, [r7, #4]
 8001e38:	6039      	str	r1, [r7, #0]
  uint32_t position = 0x00u;
 8001e3a:	2300      	movs	r3, #0
 8001e3c:	617b      	str	r3, [r7, #20]
  assert_param(IS_GPIO_ALL_INSTANCE(GPIOx));
  assert_param(IS_GPIO_PIN(GPIO_Init->Pin));
  assert_param(IS_GPIO_MODE(GPIO_Init->Mode));

  /* Configure the port pins */
  while (((GPIO_Init->Pin) >> position) != 0x00u)
 8001e3e:	e148      	b.n	80020d2 <HAL_GPIO_Init+0x2a2>
  {
    /* Get current io position */
    iocurrent = (GPIO_Init->Pin) & (1uL << position);
 8001e40:	683b      	ldr	r3, [r7, #0]
 8001e42:	681a      	ldr	r2, [r3, #0]
 8001e44:	2101      	movs	r1, #1
 8001e46:	697b      	ldr	r3, [r7, #20]
 8001e48:	fa01 f303 	lsl.w	r3, r1, r3
 8001e4c:	4013      	ands	r3, r2
 8001e4e:	60fb      	str	r3, [r7, #12]

    if (iocurrent != 0x00u)
 8001e50:	68fb      	ldr	r3, [r7, #12]
 8001e52:	2b00      	cmp	r3, #0
 8001e54:	f000 813a 	beq.w	80020cc <HAL_GPIO_Init+0x29c>
    {
      /*--------------------- GPIO Mode Configuration ------------------------*/
      /* In case of Output or Alternate function mode selection */
      if (((GPIO_Init->Mode & GPIO_MODE) == MODE_OUTPUT) || ((GPIO_Init->Mode & GPIO_MODE) == MODE_AF))
 8001e58:	683b      	ldr	r3, [r7, #0]
 8001e5a:	685b      	ldr	r3, [r3, #4]
 8001e5c:	f003 0303 	and.w	r3, r3, #3
 8001e60:	2b01      	cmp	r3, #1
 8001e62:	d005      	beq.n	8001e70 <HAL_GPIO_Init+0x40>
 8001e64:	683b      	ldr	r3, [r7, #0]
 8001e66:	685b      	ldr	r3, [r3, #4]
 8001e68:	f003 0303 	and.w	r3, r3, #3
 8001e6c:	2b02      	cmp	r3, #2
 8001e6e:	d130      	bne.n	8001ed2 <HAL_GPIO_Init+0xa2>
      {
        /* Check the Speed parameter */
        assert_param(IS_GPIO_SPEED(GPIO_Init->Speed));

        /* Configure the IO Speed */
        temp = GPIOx->OSPEEDR;
 8001e70:	687b      	ldr	r3, [r7, #4]
 8001e72:	689b      	ldr	r3, [r3, #8]
 8001e74:	613b      	str	r3, [r7, #16]
        temp &= ~(GPIO_OSPEEDR_OSPEED0 << (position * 2u));
 8001e76:	697b      	ldr	r3, [r7, #20]
 8001e78:	005b      	lsls	r3, r3, #1
 8001e7a:	2203      	movs	r2, #3
 8001e7c:	fa02 f303 	lsl.w	r3, r2, r3
 8001e80:	43db      	mvns	r3, r3
 8001e82:	693a      	ldr	r2, [r7, #16]
 8001e84:	4013      	ands	r3, r2
 8001e86:	613b      	str	r3, [r7, #16]
        temp |= (GPIO_Init->Speed << (position * 2u));
 8001e88:	683b      	ldr	r3, [r7, #0]
 8001e8a:	68da      	ldr	r2, [r3, #12]
 8001e8c:	697b      	ldr	r3, [r7, #20]
 8001e8e:	005b      	lsls	r3, r3, #1
 8001e90:	fa02 f303 	lsl.w	r3, r2, r3
 8001e94:	693a      	ldr	r2, [r7, #16]
 8001e96:	4313      	orrs	r3, r2
 8001e98:	613b      	str	r3, [r7, #16]
        GPIOx->OSPEEDR = temp;
 8001e9a:	687b      	ldr	r3, [r7, #4]
 8001e9c:	693a      	ldr	r2, [r7, #16]
 8001e9e:	609a      	str	r2, [r3, #8]

        /* Configure the IO Output Type */
        temp = GPIOx->OTYPER;
 8001ea0:	687b      	ldr	r3, [r7, #4]
 8001ea2:	685b      	ldr	r3, [r3, #4]
 8001ea4:	613b      	str	r3, [r7, #16]
        temp &= ~(GPIO_OTYPER_OT0 << position) ;
 8001ea6:	2201      	movs	r2, #1
 8001ea8:	697b      	ldr	r3, [r7, #20]
 8001eaa:	fa02 f303 	lsl.w	r3, r2, r3
 8001eae:	43db      	mvns	r3, r3
 8001eb0:	693a      	ldr	r2, [r7, #16]
 8001eb2:	4013      	ands	r3, r2
 8001eb4:	613b      	str	r3, [r7, #16]
        temp |= (((GPIO_Init->Mode & OUTPUT_TYPE) >> OUTPUT_TYPE_Pos) << position);
 8001eb6:	683b      	ldr	r3, [r7, #0]
 8001eb8:	685b      	ldr	r3, [r3, #4]
 8001eba:	091b      	lsrs	r3, r3, #4
 8001ebc:	f003 0201 	and.w	r2, r3, #1
 8001ec0:	697b      	ldr	r3, [r7, #20]
 8001ec2:	fa02 f303 	lsl.w	r3, r2, r3
 8001ec6:	693a      	ldr	r2, [r7, #16]
 8001ec8:	4313      	orrs	r3, r2
 8001eca:	613b      	str	r3, [r7, #16]
        GPIOx->OTYPER = temp;
 8001ecc:	687b      	ldr	r3, [r7, #4]
 8001ece:	693a      	ldr	r2, [r7, #16]
 8001ed0:	605a      	str	r2, [r3, #4]
      }

#endif /* STM32L471xx || STM32L475xx || STM32L476xx || STM32L485xx || STM32L486xx */

      /* Activate the Pull-up or Pull down resistor for the current IO */
      if ((GPIO_Init->Mode & GPIO_MODE) != MODE_ANALOG)
 8001ed2:	683b      	ldr	r3, [r7, #0]
 8001ed4:	685b      	ldr	r3, [r3, #4]
 8001ed6:	f003 0303 	and.w	r3, r3, #3
 8001eda:	2b03      	cmp	r3, #3
 8001edc:	d017      	beq.n	8001f0e <HAL_GPIO_Init+0xde>
      {
        /* Check the Pull parameter */
        assert_param(IS_GPIO_PULL(GPIO_Init->Pull));

        temp = GPIOx->PUPDR;
 8001ede:	687b      	ldr	r3, [r7, #4]
 8001ee0:	68db      	ldr	r3, [r3, #12]
 8001ee2:	613b      	str	r3, [r7, #16]
        temp &= ~(GPIO_PUPDR_PUPD0 << (position * 2U));
 8001ee4:	697b      	ldr	r3, [r7, #20]
 8001ee6:	005b      	lsls	r3, r3, #1
 8001ee8:	2203      	movs	r2, #3
 8001eea:	fa02 f303 	lsl.w	r3, r2, r3
 8001eee:	43db      	mvns	r3, r3
 8001ef0:	693a      	ldr	r2, [r7, #16]
 8001ef2:	4013      	ands	r3, r2
 8001ef4:	613b      	str	r3, [r7, #16]
        temp |= ((GPIO_Init->Pull) << (position * 2U));
 8001ef6:	683b      	ldr	r3, [r7, #0]
 8001ef8:	689a      	ldr	r2, [r3, #8]
 8001efa:	697b      	ldr	r3, [r7, #20]
 8001efc:	005b      	lsls	r3, r3, #1
 8001efe:	fa02 f303 	lsl.w	r3, r2, r3
 8001f02:	693a      	ldr	r2, [r7, #16]
 8001f04:	4313      	orrs	r3, r2
 8001f06:	613b      	str	r3, [r7, #16]
        GPIOx->PUPDR = temp;
 8001f08:	687b      	ldr	r3, [r7, #4]
 8001f0a:	693a      	ldr	r2, [r7, #16]
 8001f0c:	60da      	str	r2, [r3, #12]
      }

      /* In case of Alternate function mode selection */
      if ((GPIO_Init->Mode & GPIO_MODE) == MODE_AF)
 8001f0e:	683b      	ldr	r3, [r7, #0]
 8001f10:	685b      	ldr	r3, [r3, #4]
 8001f12:	f003 0303 	and.w	r3, r3, #3
 8001f16:	2b02      	cmp	r3, #2
 8001f18:	d123      	bne.n	8001f62 <HAL_GPIO_Init+0x132>
        /* Check the Alternate function parameters */
        assert_param(IS_GPIO_AF_INSTANCE(GPIOx));
        assert_param(IS_GPIO_AF(GPIO_Init->Alternate));

        /* Configure Alternate function mapped with the current IO */
        temp = GPIOx->AFR[position >> 3u];
 8001f1a:	697b      	ldr	r3, [r7, #20]
 8001f1c:	08da      	lsrs	r2, r3, #3
 8001f1e:	687b      	ldr	r3, [r7, #4]
 8001f20:	3208      	adds	r2, #8
 8001f22:	f853 3022 	ldr.w	r3, [r3, r2, lsl #2]
 8001f26:	613b      	str	r3, [r7, #16]
        temp &= ~(0xFu << ((position & 0x07u) * 4u));
 8001f28:	697b      	ldr	r3, [r7, #20]
 8001f2a:	f003 0307 	and.w	r3, r3, #7
 8001f2e:	009b      	lsls	r3, r3, #2
 8001f30:	220f      	movs	r2, #15
 8001f32:	fa02 f303 	lsl.w	r3, r2, r3
 8001f36:	43db      	mvns	r3, r3
 8001f38:	693a      	ldr	r2, [r7, #16]
 8001f3a:	4013      	ands	r3, r2
 8001f3c:	613b      	str	r3, [r7, #16]
        temp |= ((GPIO_Init->Alternate) << ((position & 0x07u) * 4u));
 8001f3e:	683b      	ldr	r3, [r7, #0]
 8001f40:	691a      	ldr	r2, [r3, #16]
 8001f42:	697b      	ldr	r3, [r7, #20]
 8001f44:	f003 0307 	and.w	r3, r3, #7
 8001f48:	009b      	lsls	r3, r3, #2
 8001f4a:	fa02 f303 	lsl.w	r3, r2, r3
 8001f4e:	693a      	ldr	r2, [r7, #16]
 8001f50:	4313      	orrs	r3, r2
 8001f52:	613b      	str	r3, [r7, #16]
        GPIOx->AFR[position >> 3u] = temp;
 8001f54:	697b      	ldr	r3, [r7, #20]
 8001f56:	08da      	lsrs	r2, r3, #3
 8001f58:	687b      	ldr	r3, [r7, #4]
 8001f5a:	3208      	adds	r2, #8
 8001f5c:	6939      	ldr	r1, [r7, #16]
 8001f5e:	f843 1022 	str.w	r1, [r3, r2, lsl #2]
      }

      /* Configure IO Direction mode (Input, Output, Alternate or Analog) */
      temp = GPIOx->MODER;
 8001f62:	687b      	ldr	r3, [r7, #4]
 8001f64:	681b      	ldr	r3, [r3, #0]
 8001f66:	613b      	str	r3, [r7, #16]
      temp &= ~(GPIO_MODER_MODE0 << (position * 2u));
 8001f68:	697b      	ldr	r3, [r7, #20]
 8001f6a:	005b      	lsls	r3, r3, #1
 8001f6c:	2203      	movs	r2, #3
 8001f6e:	fa02 f303 	lsl.w	r3, r2, r3
 8001f72:	43db      	mvns	r3, r3
 8001f74:	693a      	ldr	r2, [r7, #16]
 8001f76:	4013      	ands	r3, r2
 8001f78:	613b      	str	r3, [r7, #16]
      temp |= ((GPIO_Init->Mode & GPIO_MODE) << (position * 2u));
 8001f7a:	683b      	ldr	r3, [r7, #0]
 8001f7c:	685b      	ldr	r3, [r3, #4]
 8001f7e:	f003 0203 	and.w	r2, r3, #3
 8001f82:	697b      	ldr	r3, [r7, #20]
 8001f84:	005b      	lsls	r3, r3, #1
 8001f86:	fa02 f303 	lsl.w	r3, r2, r3
 8001f8a:	693a      	ldr	r2, [r7, #16]
 8001f8c:	4313      	orrs	r3, r2
 8001f8e:	613b      	str	r3, [r7, #16]
      GPIOx->MODER = temp;
 8001f90:	687b      	ldr	r3, [r7, #4]
 8001f92:	693a      	ldr	r2, [r7, #16]
 8001f94:	601a      	str	r2, [r3, #0]

      /*--------------------- EXTI Mode Configuration ------------------------*/
      /* Configure the External Interrupt or event for the current IO */
      if ((GPIO_Init->Mode & EXTI_MODE) != 0x00u)
 8001f96:	683b      	ldr	r3, [r7, #0]
 8001f98:	685b      	ldr	r3, [r3, #4]
 8001f9a:	f403 3340 	and.w	r3, r3, #196608	@ 0x30000
 8001f9e:	2b00      	cmp	r3, #0
 8001fa0:	f000 8094 	beq.w	80020cc <HAL_GPIO_Init+0x29c>
      {
        /* Enable SYSCFG Clock */
        __HAL_RCC_SYSCFG_CLK_ENABLE();
 8001fa4:	4b52      	ldr	r3, [pc, #328]	@ (80020f0 <HAL_GPIO_Init+0x2c0>)
 8001fa6:	6e1b      	ldr	r3, [r3, #96]	@ 0x60
 8001fa8:	4a51      	ldr	r2, [pc, #324]	@ (80020f0 <HAL_GPIO_Init+0x2c0>)
 8001faa:	f043 0301 	orr.w	r3, r3, #1
 8001fae:	6613      	str	r3, [r2, #96]	@ 0x60
 8001fb0:	4b4f      	ldr	r3, [pc, #316]	@ (80020f0 <HAL_GPIO_Init+0x2c0>)
 8001fb2:	6e1b      	ldr	r3, [r3, #96]	@ 0x60
 8001fb4:	f003 0301 	and.w	r3, r3, #1
 8001fb8:	60bb      	str	r3, [r7, #8]
 8001fba:	68bb      	ldr	r3, [r7, #8]

        temp = SYSCFG->EXTICR[position >> 2u];
 8001fbc:	4a4d      	ldr	r2, [pc, #308]	@ (80020f4 <HAL_GPIO_Init+0x2c4>)
 8001fbe:	697b      	ldr	r3, [r7, #20]
 8001fc0:	089b      	lsrs	r3, r3, #2
 8001fc2:	3302      	adds	r3, #2
 8001fc4:	f852 3023 	ldr.w	r3, [r2, r3, lsl #2]
 8001fc8:	613b      	str	r3, [r7, #16]
        temp &= ~(0x0FuL << (4u * (position & 0x03u)));
 8001fca:	697b      	ldr	r3, [r7, #20]
 8001fcc:	f003 0303 	and.w	r3, r3, #3
 8001fd0:	009b      	lsls	r3, r3, #2
 8001fd2:	220f      	movs	r2, #15
 8001fd4:	fa02 f303 	lsl.w	r3, r2, r3
 8001fd8:	43db      	mvns	r3, r3
 8001fda:	693a      	ldr	r2, [r7, #16]
 8001fdc:	4013      	ands	r3, r2
 8001fde:	613b      	str	r3, [r7, #16]
        temp |= (GPIO_GET_INDEX(GPIOx) << (4u * (position & 0x03u)));
 8001fe0:	687b      	ldr	r3, [r7, #4]
 8001fe2:	f1b3 4f90 	cmp.w	r3, #1207959552	@ 0x48000000
 8001fe6:	d00d      	beq.n	8002004 <HAL_GPIO_Init+0x1d4>
 8001fe8:	687b      	ldr	r3, [r7, #4]
 8001fea:	4a43      	ldr	r2, [pc, #268]	@ (80020f8 <HAL_GPIO_Init+0x2c8>)
 8001fec:	4293      	cmp	r3, r2
 8001fee:	d007      	beq.n	8002000 <HAL_GPIO_Init+0x1d0>
 8001ff0:	687b      	ldr	r3, [r7, #4]
 8001ff2:	4a42      	ldr	r2, [pc, #264]	@ (80020fc <HAL_GPIO_Init+0x2cc>)
 8001ff4:	4293      	cmp	r3, r2
 8001ff6:	d101      	bne.n	8001ffc <HAL_GPIO_Init+0x1cc>
 8001ff8:	2302      	movs	r3, #2
 8001ffa:	e004      	b.n	8002006 <HAL_GPIO_Init+0x1d6>
 8001ffc:	2307      	movs	r3, #7
 8001ffe:	e002      	b.n	8002006 <HAL_GPIO_Init+0x1d6>
 8002000:	2301      	movs	r3, #1
 8002002:	e000      	b.n	8002006 <HAL_GPIO_Init+0x1d6>
 8002004:	2300      	movs	r3, #0
 8002006:	697a      	ldr	r2, [r7, #20]
 8002008:	f002 0203 	and.w	r2, r2, #3
 800200c:	0092      	lsls	r2, r2, #2
 800200e:	4093      	lsls	r3, r2
 8002010:	693a      	ldr	r2, [r7, #16]
 8002012:	4313      	orrs	r3, r2
 8002014:	613b      	str	r3, [r7, #16]
        SYSCFG->EXTICR[position >> 2u] = temp;
 8002016:	4937      	ldr	r1, [pc, #220]	@ (80020f4 <HAL_GPIO_Init+0x2c4>)
 8002018:	697b      	ldr	r3, [r7, #20]
 800201a:	089b      	lsrs	r3, r3, #2
 800201c:	3302      	adds	r3, #2
 800201e:	693a      	ldr	r2, [r7, #16]
 8002020:	f841 2023 	str.w	r2, [r1, r3, lsl #2]

        /* Clear Rising Falling edge configuration */
        temp = EXTI->RTSR1;
 8002024:	4b36      	ldr	r3, [pc, #216]	@ (8002100 <HAL_GPIO_Init+0x2d0>)
 8002026:	689b      	ldr	r3, [r3, #8]
 8002028:	613b      	str	r3, [r7, #16]
        temp &= ~(iocurrent);
 800202a:	68fb      	ldr	r3, [r7, #12]
 800202c:	43db      	mvns	r3, r3
 800202e:	693a      	ldr	r2, [r7, #16]
 8002030:	4013      	ands	r3, r2
 8002032:	613b      	str	r3, [r7, #16]
        if ((GPIO_Init->Mode & TRIGGER_RISING) != 0x00u)
 8002034:	683b      	ldr	r3, [r7, #0]
 8002036:	685b      	ldr	r3, [r3, #4]
 8002038:	f403 1380 	and.w	r3, r3, #1048576	@ 0x100000
 800203c:	2b00      	cmp	r3, #0
 800203e:	d003      	beq.n	8002048 <HAL_GPIO_Init+0x218>
        {
          temp |= iocurrent;
 8002040:	693a      	ldr	r2, [r7, #16]
 8002042:	68fb      	ldr	r3, [r7, #12]
 8002044:	4313      	orrs	r3, r2
 8002046:	613b      	str	r3, [r7, #16]
        }
        EXTI->RTSR1 = temp;
 8002048:	4a2d      	ldr	r2, [pc, #180]	@ (8002100 <HAL_GPIO_Init+0x2d0>)
 800204a:	693b      	ldr	r3, [r7, #16]
 800204c:	6093      	str	r3, [r2, #8]

        temp = EXTI->FTSR1;
 800204e:	4b2c      	ldr	r3, [pc, #176]	@ (8002100 <HAL_GPIO_Init+0x2d0>)
 8002050:	68db      	ldr	r3, [r3, #12]
 8002052:	613b      	str	r3, [r7, #16]
        temp &= ~(iocurrent);
 8002054:	68fb      	ldr	r3, [r7, #12]
 8002056:	43db      	mvns	r3, r3
 8002058:	693a      	ldr	r2, [r7, #16]
 800205a:	4013      	ands	r3, r2
 800205c:	613b      	str	r3, [r7, #16]
        if ((GPIO_Init->Mode & TRIGGER_FALLING) != 0x00u)
 800205e:	683b      	ldr	r3, [r7, #0]
 8002060:	685b      	ldr	r3, [r3, #4]
 8002062:	f403 1300 	and.w	r3, r3, #2097152	@ 0x200000
 8002066:	2b00      	cmp	r3, #0
 8002068:	d003      	beq.n	8002072 <HAL_GPIO_Init+0x242>
        {
          temp |= iocurrent;
 800206a:	693a      	ldr	r2, [r7, #16]
 800206c:	68fb      	ldr	r3, [r7, #12]
 800206e:	4313      	orrs	r3, r2
 8002070:	613b      	str	r3, [r7, #16]
        }
        EXTI->FTSR1 = temp;
 8002072:	4a23      	ldr	r2, [pc, #140]	@ (8002100 <HAL_GPIO_Init+0x2d0>)
 8002074:	693b      	ldr	r3, [r7, #16]
 8002076:	60d3      	str	r3, [r2, #12]

        /* Clear EXTI line configuration */
        temp = EXTI->EMR1;
 8002078:	4b21      	ldr	r3, [pc, #132]	@ (8002100 <HAL_GPIO_Init+0x2d0>)
 800207a:	685b      	ldr	r3, [r3, #4]
 800207c:	613b      	str	r3, [r7, #16]
        temp &= ~(iocurrent);
 800207e:	68fb      	ldr	r3, [r7, #12]
 8002080:	43db      	mvns	r3, r3
 8002082:	693a      	ldr	r2, [r7, #16]
 8002084:	4013      	ands	r3, r2
 8002086:	613b      	str	r3, [r7, #16]
        if ((GPIO_Init->Mode & EXTI_EVT) != 0x00u)
 8002088:	683b      	ldr	r3, [r7, #0]
 800208a:	685b      	ldr	r3, [r3, #4]
 800208c:	f403 3300 	and.w	r3, r3, #131072	@ 0x20000
 8002090:	2b00      	cmp	r3, #0
 8002092:	d003      	beq.n	800209c <HAL_GPIO_Init+0x26c>
        {
          temp |= iocurrent;
 8002094:	693a      	ldr	r2, [r7, #16]
 8002096:	68fb      	ldr	r3, [r7, #12]
 8002098:	4313      	orrs	r3, r2
 800209a:	613b      	str	r3, [r7, #16]
        }
        EXTI->EMR1 = temp;
 800209c:	4a18      	ldr	r2, [pc, #96]	@ (8002100 <HAL_GPIO_Init+0x2d0>)
 800209e:	693b      	ldr	r3, [r7, #16]
 80020a0:	6053      	str	r3, [r2, #4]

        temp = EXTI->IMR1;
 80020a2:	4b17      	ldr	r3, [pc, #92]	@ (8002100 <HAL_GPIO_Init+0x2d0>)
 80020a4:	681b      	ldr	r3, [r3, #0]
 80020a6:	613b      	str	r3, [r7, #16]
        temp &= ~(iocurrent);
 80020a8:	68fb      	ldr	r3, [r7, #12]
 80020aa:	43db      	mvns	r3, r3
 80020ac:	693a      	ldr	r2, [r7, #16]
 80020ae:	4013      	ands	r3, r2
 80020b0:	613b      	str	r3, [r7, #16]
        if ((GPIO_Init->Mode & EXTI_IT) != 0x00u)
 80020b2:	683b      	ldr	r3, [r7, #0]
 80020b4:	685b      	ldr	r3, [r3, #4]
 80020b6:	f403 3380 	and.w	r3, r3, #65536	@ 0x10000
 80020ba:	2b00      	cmp	r3, #0
 80020bc:	d003      	beq.n	80020c6 <HAL_GPIO_Init+0x296>
        {
          temp |= iocurrent;
 80020be:	693a      	ldr	r2, [r7, #16]
 80020c0:	68fb      	ldr	r3, [r7, #12]
 80020c2:	4313      	orrs	r3, r2
 80020c4:	613b      	str	r3, [r7, #16]
        }
        EXTI->IMR1 = temp;
 80020c6:	4a0e      	ldr	r2, [pc, #56]	@ (8002100 <HAL_GPIO_Init+0x2d0>)
 80020c8:	693b      	ldr	r3, [r7, #16]
 80020ca:	6013      	str	r3, [r2, #0]
      }
    }

    position++;
 80020cc:	697b      	ldr	r3, [r7, #20]
 80020ce:	3301      	adds	r3, #1
 80020d0:	617b      	str	r3, [r7, #20]
  while (((GPIO_Init->Pin) >> position) != 0x00u)
 80020d2:	683b      	ldr	r3, [r7, #0]
 80020d4:	681a      	ldr	r2, [r3, #0]
 80020d6:	697b      	ldr	r3, [r7, #20]
 80020d8:	fa22 f303 	lsr.w	r3, r2, r3
 80020dc:	2b00      	cmp	r3, #0
 80020de:	f47f aeaf 	bne.w	8001e40 <HAL_GPIO_Init+0x10>
  }
}
 80020e2:	bf00      	nop
 80020e4:	bf00      	nop
 80020e6:	371c      	adds	r7, #28
 80020e8:	46bd      	mov	sp, r7
 80020ea:	f85d 7b04 	ldr.w	r7, [sp], #4
 80020ee:	4770      	bx	lr
 80020f0:	40021000 	.word	0x40021000
 80020f4:	40010000 	.word	0x40010000
 80020f8:	48000400 	.word	0x48000400
 80020fc:	48000800 	.word	0x48000800
 8002100:	40010400 	.word	0x40010400

08002104 <HAL_GPIO_WritePin>:
  *            @arg GPIO_PIN_RESET: to clear the port pin
  *            @arg GPIO_PIN_SET: to set the port pin
  * @retval None
  */
void HAL_GPIO_WritePin(GPIO_TypeDef* GPIOx, uint16_t GPIO_Pin, GPIO_PinState PinState)
{
 8002104:	b480      	push	{r7}
 8002106:	b083      	sub	sp, #12
 8002108:	af00      	add	r7, sp, #0
 800210a:	6078      	str	r0, [r7, #4]
 800210c:	460b      	mov	r3, r1
 800210e:	807b      	strh	r3, [r7, #2]
 8002110:	4613      	mov	r3, r2
 8002112:	707b      	strb	r3, [r7, #1]
  /* Check the parameters */
  assert_param(IS_GPIO_PIN(GPIO_Pin));
  assert_param(IS_GPIO_PIN_ACTION(PinState));

  if(PinState != GPIO_PIN_RESET)
 8002114:	787b      	ldrb	r3, [r7, #1]
 8002116:	2b00      	cmp	r3, #0
 8002118:	d003      	beq.n	8002122 <HAL_GPIO_WritePin+0x1e>
  {
    GPIOx->BSRR = (uint32_t)GPIO_Pin;
 800211a:	887a      	ldrh	r2, [r7, #2]
 800211c:	687b      	ldr	r3, [r7, #4]
 800211e:	619a      	str	r2, [r3, #24]
  }
  else
  {
    GPIOx->BRR = (uint32_t)GPIO_Pin;
  }
}
 8002120:	e002      	b.n	8002128 <HAL_GPIO_WritePin+0x24>
    GPIOx->BRR = (uint32_t)GPIO_Pin;
 8002122:	887a      	ldrh	r2, [r7, #2]
 8002124:	687b      	ldr	r3, [r7, #4]
 8002126:	629a      	str	r2, [r3, #40]	@ 0x28
}
 8002128:	bf00      	nop
 800212a:	370c      	adds	r7, #12
 800212c:	46bd      	mov	sp, r7
 800212e:	f85d 7b04 	ldr.w	r7, [sp], #4
 8002132:	4770      	bx	lr

08002134 <HAL_PWREx_GetVoltageRange>:
  * @brief Return Voltage Scaling Range.
  * @retval VOS bit field (PWR_REGULATOR_VOLTAGE_SCALE1 or PWR_REGULATOR_VOLTAGE_SCALE2
  *         or PWR_REGULATOR_VOLTAGE_SCALE1_BOOST when applicable)
  */
uint32_t HAL_PWREx_GetVoltageRange(void)
{
 8002134:	b480      	push	{r7}
 8002136:	af00      	add	r7, sp, #0
    else
    {
      return PWR_REGULATOR_VOLTAGE_SCALE1_BOOST;
    }
#else
  return  (PWR->CR1 & PWR_CR1_VOS);
 8002138:	4b04      	ldr	r3, [pc, #16]	@ (800214c <HAL_PWREx_GetVoltageRange+0x18>)
 800213a:	681b      	ldr	r3, [r3, #0]
 800213c:	f403 63c0 	and.w	r3, r3, #1536	@ 0x600
#endif
}
 8002140:	4618      	mov	r0, r3
 8002142:	46bd      	mov	sp, r7
 8002144:	f85d 7b04 	ldr.w	r7, [sp], #4
 8002148:	4770      	bx	lr
 800214a:	bf00      	nop
 800214c:	40007000 	.word	0x40007000

08002150 <HAL_PWREx_ControlVoltageScaling>:
  *        cleared before returning the status. If the flag is not cleared within
  *        50 microseconds, HAL_TIMEOUT status is reported.
  * @retval HAL Status
  */
HAL_StatusTypeDef HAL_PWREx_ControlVoltageScaling(uint32_t VoltageScaling)
{
 8002150:	b480      	push	{r7}
 8002152:	b085      	sub	sp, #20
 8002154:	af00      	add	r7, sp, #0
 8002156:	6078      	str	r0, [r7, #4]
  }

#else

  /* If Set Range 1 */
  if (VoltageScaling == PWR_REGULATOR_VOLTAGE_SCALE1)
 8002158:	687b      	ldr	r3, [r7, #4]
 800215a:	f5b3 7f00 	cmp.w	r3, #512	@ 0x200
 800215e:	d130      	bne.n	80021c2 <HAL_PWREx_ControlVoltageScaling+0x72>
  {
    if (READ_BIT(PWR->CR1, PWR_CR1_VOS) != PWR_REGULATOR_VOLTAGE_SCALE1)
 8002160:	4b23      	ldr	r3, [pc, #140]	@ (80021f0 <HAL_PWREx_ControlVoltageScaling+0xa0>)
 8002162:	681b      	ldr	r3, [r3, #0]
 8002164:	f403 63c0 	and.w	r3, r3, #1536	@ 0x600
 8002168:	f5b3 7f00 	cmp.w	r3, #512	@ 0x200
 800216c:	d038      	beq.n	80021e0 <HAL_PWREx_ControlVoltageScaling+0x90>
    {
      /* Set Range 1 */
      MODIFY_REG(PWR->CR1, PWR_CR1_VOS, PWR_REGULATOR_VOLTAGE_SCALE1);
 800216e:	4b20      	ldr	r3, [pc, #128]	@ (80021f0 <HAL_PWREx_ControlVoltageScaling+0xa0>)
 8002170:	681b      	ldr	r3, [r3, #0]
 8002172:	f423 63c0 	bic.w	r3, r3, #1536	@ 0x600
 8002176:	4a1e      	ldr	r2, [pc, #120]	@ (80021f0 <HAL_PWREx_ControlVoltageScaling+0xa0>)
 8002178:	f443 7300 	orr.w	r3, r3, #512	@ 0x200
 800217c:	6013      	str	r3, [r2, #0]

      /* Wait until VOSF is cleared */
      wait_loop_index = ((PWR_FLAG_SETTING_DELAY_US * SystemCoreClock) / 1000000U) + 1U;
 800217e:	4b1d      	ldr	r3, [pc, #116]	@ (80021f4 <HAL_PWREx_ControlVoltageScaling+0xa4>)
 8002180:	681b      	ldr	r3, [r3, #0]
 8002182:	2232      	movs	r2, #50	@ 0x32
 8002184:	fb02 f303 	mul.w	r3, r2, r3
 8002188:	4a1b      	ldr	r2, [pc, #108]	@ (80021f8 <HAL_PWREx_ControlVoltageScaling+0xa8>)
 800218a:	fba2 2303 	umull	r2, r3, r2, r3
 800218e:	0c9b      	lsrs	r3, r3, #18
 8002190:	3301      	adds	r3, #1
 8002192:	60fb      	str	r3, [r7, #12]
      while ((HAL_IS_BIT_SET(PWR->SR2, PWR_SR2_VOSF)) && (wait_loop_index != 0U))
 8002194:	e002      	b.n	800219c <HAL_PWREx_ControlVoltageScaling+0x4c>
      {
        wait_loop_index--;
 8002196:	68fb      	ldr	r3, [r7, #12]
 8002198:	3b01      	subs	r3, #1
 800219a:	60fb      	str	r3, [r7, #12]
      while ((HAL_IS_BIT_SET(PWR->SR2, PWR_SR2_VOSF)) && (wait_loop_index != 0U))
 800219c:	4b14      	ldr	r3, [pc, #80]	@ (80021f0 <HAL_PWREx_ControlVoltageScaling+0xa0>)
 800219e:	695b      	ldr	r3, [r3, #20]
 80021a0:	f403 6380 	and.w	r3, r3, #1024	@ 0x400
 80021a4:	f5b3 6f80 	cmp.w	r3, #1024	@ 0x400
 80021a8:	d102      	bne.n	80021b0 <HAL_PWREx_ControlVoltageScaling+0x60>
 80021aa:	68fb      	ldr	r3, [r7, #12]
 80021ac:	2b00      	cmp	r3, #0
 80021ae:	d1f2      	bne.n	8002196 <HAL_PWREx_ControlVoltageScaling+0x46>
      }
      if (HAL_IS_BIT_SET(PWR->SR2, PWR_SR2_VOSF))
 80021b0:	4b0f      	ldr	r3, [pc, #60]	@ (80021f0 <HAL_PWREx_ControlVoltageScaling+0xa0>)
 80021b2:	695b      	ldr	r3, [r3, #20]
 80021b4:	f403 6380 	and.w	r3, r3, #1024	@ 0x400
 80021b8:	f5b3 6f80 	cmp.w	r3, #1024	@ 0x400
 80021bc:	d110      	bne.n	80021e0 <HAL_PWREx_ControlVoltageScaling+0x90>
      {
        return HAL_TIMEOUT;
 80021be:	2303      	movs	r3, #3
 80021c0:	e00f      	b.n	80021e2 <HAL_PWREx_ControlVoltageScaling+0x92>
      }
    }
  }
  else
  {
    if (READ_BIT(PWR->CR1, PWR_CR1_VOS) != PWR_REGULATOR_VOLTAGE_SCALE2)
 80021c2:	4b0b      	ldr	r3, [pc, #44]	@ (80021f0 <HAL_PWREx_ControlVoltageScaling+0xa0>)
 80021c4:	681b      	ldr	r3, [r3, #0]
 80021c6:	f403 63c0 	and.w	r3, r3, #1536	@ 0x600
 80021ca:	f5b3 6f80 	cmp.w	r3, #1024	@ 0x400
 80021ce:	d007      	beq.n	80021e0 <HAL_PWREx_ControlVoltageScaling+0x90>
    {
      /* Set Range 2 */
      MODIFY_REG(PWR->CR1, PWR_CR1_VOS, PWR_REGULATOR_VOLTAGE_SCALE2);
 80021d0:	4b07      	ldr	r3, [pc, #28]	@ (80021f0 <HAL_PWREx_ControlVoltageScaling+0xa0>)
 80021d2:	681b      	ldr	r3, [r3, #0]
 80021d4:	f423 63c0 	bic.w	r3, r3, #1536	@ 0x600
 80021d8:	4a05      	ldr	r2, [pc, #20]	@ (80021f0 <HAL_PWREx_ControlVoltageScaling+0xa0>)
 80021da:	f443 6380 	orr.w	r3, r3, #1024	@ 0x400
 80021de:	6013      	str	r3, [r2, #0]
      /* No need to wait for VOSF to be cleared for this transition */
    }
  }
#endif

  return HAL_OK;
 80021e0:	2300      	movs	r3, #0
}
 80021e2:	4618      	mov	r0, r3
 80021e4:	3714      	adds	r7, #20
 80021e6:	46bd      	mov	sp, r7
 80021e8:	f85d 7b04 	ldr.w	r7, [sp], #4
 80021ec:	4770      	bx	lr
 80021ee:	bf00      	nop
 80021f0:	40007000 	.word	0x40007000
 80021f4:	2000c8a0 	.word	0x2000c8a0
 80021f8:	431bde83 	.word	0x431bde83

080021fc <HAL_RCC_OscConfig>:
  * @note   If HSE failed to start, HSE should be disabled before recalling
            HAL_RCC_OscConfig().
  * @retval HAL status
  */
HAL_StatusTypeDef HAL_RCC_OscConfig(RCC_OscInitTypeDef  *RCC_OscInitStruct)
{
 80021fc:	b580      	push	{r7, lr}
 80021fe:	b088      	sub	sp, #32
 8002200:	af00      	add	r7, sp, #0
 8002202:	6078      	str	r0, [r7, #4]
  uint32_t tickstart;
  HAL_StatusTypeDef status;
  uint32_t sysclk_source, pll_config;

  /* Check Null pointer */
  if(RCC_OscInitStruct == NULL)
 8002204:	687b      	ldr	r3, [r7, #4]
 8002206:	2b00      	cmp	r3, #0
 8002208:	d102      	bne.n	8002210 <HAL_RCC_OscConfig+0x14>
  {
    return HAL_ERROR;
 800220a:	2301      	movs	r3, #1
 800220c:	f000 bc02 	b.w	8002a14 <HAL_RCC_OscConfig+0x818>
  }

  /* Check the parameters */
  assert_param(IS_RCC_OSCILLATORTYPE(RCC_OscInitStruct->OscillatorType));

  sysclk_source = __HAL_RCC_GET_SYSCLK_SOURCE();
 8002210:	4b96      	ldr	r3, [pc, #600]	@ (800246c <HAL_RCC_OscConfig+0x270>)
 8002212:	689b      	ldr	r3, [r3, #8]
 8002214:	f003 030c 	and.w	r3, r3, #12
 8002218:	61bb      	str	r3, [r7, #24]
  pll_config = __HAL_RCC_GET_PLL_OSCSOURCE();
 800221a:	4b94      	ldr	r3, [pc, #592]	@ (800246c <HAL_RCC_OscConfig+0x270>)
 800221c:	68db      	ldr	r3, [r3, #12]
 800221e:	f003 0303 	and.w	r3, r3, #3
 8002222:	617b      	str	r3, [r7, #20]

  /*----------------------------- MSI Configuration --------------------------*/
  if(((RCC_OscInitStruct->OscillatorType) & RCC_OSCILLATORTYPE_MSI) == RCC_OSCILLATORTYPE_MSI)
 8002224:	687b      	ldr	r3, [r7, #4]
 8002226:	681b      	ldr	r3, [r3, #0]
 8002228:	f003 0310 	and.w	r3, r3, #16
 800222c:	2b00      	cmp	r3, #0
 800222e:	f000 80e4 	beq.w	80023fa <HAL_RCC_OscConfig+0x1fe>
    assert_param(IS_RCC_MSI(RCC_OscInitStruct->MSIState));
    assert_param(IS_RCC_MSICALIBRATION_VALUE(RCC_OscInitStruct->MSICalibrationValue));
    assert_param(IS_RCC_MSI_CLOCK_RANGE(RCC_OscInitStruct->MSIClockRange));

    /* Check if MSI is used as system clock or as PLL source when PLL is selected as system clock */
    if((sysclk_source == RCC_CFGR_SWS_MSI) ||
 8002232:	69bb      	ldr	r3, [r7, #24]
 8002234:	2b00      	cmp	r3, #0
 8002236:	d007      	beq.n	8002248 <HAL_RCC_OscConfig+0x4c>
 8002238:	69bb      	ldr	r3, [r7, #24]
 800223a:	2b0c      	cmp	r3, #12
 800223c:	f040 808b 	bne.w	8002356 <HAL_RCC_OscConfig+0x15a>
       ((sysclk_source == RCC_CFGR_SWS_PLL) && (pll_config == RCC_PLLSOURCE_MSI)))
 8002240:	697b      	ldr	r3, [r7, #20]
 8002242:	2b01      	cmp	r3, #1
 8002244:	f040 8087 	bne.w	8002356 <HAL_RCC_OscConfig+0x15a>
    {
      if((READ_BIT(RCC->CR, RCC_CR_MSIRDY) != 0U) && (RCC_OscInitStruct->MSIState == RCC_MSI_OFF))
 8002248:	4b88      	ldr	r3, [pc, #544]	@ (800246c <HAL_RCC_OscConfig+0x270>)
 800224a:	681b      	ldr	r3, [r3, #0]
 800224c:	f003 0302 	and.w	r3, r3, #2
 8002250:	2b00      	cmp	r3, #0
 8002252:	d005      	beq.n	8002260 <HAL_RCC_OscConfig+0x64>
 8002254:	687b      	ldr	r3, [r7, #4]
 8002256:	699b      	ldr	r3, [r3, #24]
 8002258:	2b00      	cmp	r3, #0
 800225a:	d101      	bne.n	8002260 <HAL_RCC_OscConfig+0x64>
      {
        return HAL_ERROR;
 800225c:	2301      	movs	r3, #1
 800225e:	e3d9      	b.n	8002a14 <HAL_RCC_OscConfig+0x818>
      else
      {
        /* To correctly read data from FLASH memory, the number of wait states (LATENCY)
           must be correctly programmed according to the frequency of the CPU clock
           (HCLK) and the supply voltage of the device. */
        if(RCC_OscInitStruct->MSIClockRange > __HAL_RCC_GET_MSI_RANGE())
 8002260:	687b      	ldr	r3, [r7, #4]
 8002262:	6a1a      	ldr	r2, [r3, #32]
 8002264:	4b81      	ldr	r3, [pc, #516]	@ (800246c <HAL_RCC_OscConfig+0x270>)
 8002266:	681b      	ldr	r3, [r3, #0]
 8002268:	f003 0308 	and.w	r3, r3, #8
 800226c:	2b00      	cmp	r3, #0
 800226e:	d004      	beq.n	800227a <HAL_RCC_OscConfig+0x7e>
 8002270:	4b7e      	ldr	r3, [pc, #504]	@ (800246c <HAL_RCC_OscConfig+0x270>)
 8002272:	681b      	ldr	r3, [r3, #0]
 8002274:	f003 03f0 	and.w	r3, r3, #240	@ 0xf0
 8002278:	e005      	b.n	8002286 <HAL_RCC_OscConfig+0x8a>
 800227a:	4b7c      	ldr	r3, [pc, #496]	@ (800246c <HAL_RCC_OscConfig+0x270>)
 800227c:	f8d3 3094 	ldr.w	r3, [r3, #148]	@ 0x94
 8002280:	091b      	lsrs	r3, r3, #4
 8002282:	f003 03f0 	and.w	r3, r3, #240	@ 0xf0
 8002286:	4293      	cmp	r3, r2
 8002288:	d223      	bcs.n	80022d2 <HAL_RCC_OscConfig+0xd6>
        {
          /* First increase number of wait states update if necessary */
          if(RCC_SetFlashLatencyFromMSIRange(RCC_OscInitStruct->MSIClockRange) != HAL_OK)
 800228a:	687b      	ldr	r3, [r7, #4]
 800228c:	6a1b      	ldr	r3, [r3, #32]
 800228e:	4618      	mov	r0, r3
 8002290:	f000 fd54 	bl	8002d3c <RCC_SetFlashLatencyFromMSIRange>
 8002294:	4603      	mov	r3, r0
 8002296:	2b00      	cmp	r3, #0
 8002298:	d001      	beq.n	800229e <HAL_RCC_OscConfig+0xa2>
          {
            return HAL_ERROR;
 800229a:	2301      	movs	r3, #1
 800229c:	e3ba      	b.n	8002a14 <HAL_RCC_OscConfig+0x818>
          }

          /* Selects the Multiple Speed oscillator (MSI) clock range .*/
          __HAL_RCC_MSI_RANGE_CONFIG(RCC_OscInitStruct->MSIClockRange);
 800229e:	4b73      	ldr	r3, [pc, #460]	@ (800246c <HAL_RCC_OscConfig+0x270>)
 80022a0:	681b      	ldr	r3, [r3, #0]
 80022a2:	4a72      	ldr	r2, [pc, #456]	@ (800246c <HAL_RCC_OscConfig+0x270>)
 80022a4:	f043 0308 	orr.w	r3, r3, #8
 80022a8:	6013      	str	r3, [r2, #0]
 80022aa:	4b70      	ldr	r3, [pc, #448]	@ (800246c <HAL_RCC_OscConfig+0x270>)
 80022ac:	681b      	ldr	r3, [r3, #0]
 80022ae:	f023 02f0 	bic.w	r2, r3, #240	@ 0xf0
 80022b2:	687b      	ldr	r3, [r7, #4]
 80022b4:	6a1b      	ldr	r3, [r3, #32]
 80022b6:	496d      	ldr	r1, [pc, #436]	@ (800246c <HAL_RCC_OscConfig+0x270>)
 80022b8:	4313      	orrs	r3, r2
 80022ba:	600b      	str	r3, [r1, #0]
          /* Adjusts the Multiple Speed oscillator (MSI) calibration value.*/
          __HAL_RCC_MSI_CALIBRATIONVALUE_ADJUST(RCC_OscInitStruct->MSICalibrationValue);
 80022bc:	4b6b      	ldr	r3, [pc, #428]	@ (800246c <HAL_RCC_OscConfig+0x270>)
 80022be:	685b      	ldr	r3, [r3, #4]
 80022c0:	f423 427f 	bic.w	r2, r3, #65280	@ 0xff00
 80022c4:	687b      	ldr	r3, [r7, #4]
 80022c6:	69db      	ldr	r3, [r3, #28]
 80022c8:	021b      	lsls	r3, r3, #8
 80022ca:	4968      	ldr	r1, [pc, #416]	@ (800246c <HAL_RCC_OscConfig+0x270>)
 80022cc:	4313      	orrs	r3, r2
 80022ce:	604b      	str	r3, [r1, #4]
 80022d0:	e025      	b.n	800231e <HAL_RCC_OscConfig+0x122>
        }
        else
        {
          /* Else, keep current flash latency while decreasing applies */
          /* Selects the Multiple Speed oscillator (MSI) clock range .*/
          __HAL_RCC_MSI_RANGE_CONFIG(RCC_OscInitStruct->MSIClockRange);
 80022d2:	4b66      	ldr	r3, [pc, #408]	@ (800246c <HAL_RCC_OscConfig+0x270>)
 80022d4:	681b      	ldr	r3, [r3, #0]
 80022d6:	4a65      	ldr	r2, [pc, #404]	@ (800246c <HAL_RCC_OscConfig+0x270>)
 80022d8:	f043 0308 	orr.w	r3, r3, #8
 80022dc:	6013      	str	r3, [r2, #0]
 80022de:	4b63      	ldr	r3, [pc, #396]	@ (800246c <HAL_RCC_OscConfig+0x270>)
 80022e0:	681b      	ldr	r3, [r3, #0]
 80022e2:	f023 02f0 	bic.w	r2, r3, #240	@ 0xf0
 80022e6:	687b      	ldr	r3, [r7, #4]
 80022e8:	6a1b      	ldr	r3, [r3, #32]
 80022ea:	4960      	ldr	r1, [pc, #384]	@ (800246c <HAL_RCC_OscConfig+0x270>)
 80022ec:	4313      	orrs	r3, r2
 80022ee:	600b      	str	r3, [r1, #0]
          /* Adjusts the Multiple Speed oscillator (MSI) calibration value.*/
          __HAL_RCC_MSI_CALIBRATIONVALUE_ADJUST(RCC_OscInitStruct->MSICalibrationValue);
 80022f0:	4b5e      	ldr	r3, [pc, #376]	@ (800246c <HAL_RCC_OscConfig+0x270>)
 80022f2:	685b      	ldr	r3, [r3, #4]
 80022f4:	f423 427f 	bic.w	r2, r3, #65280	@ 0xff00
 80022f8:	687b      	ldr	r3, [r7, #4]
 80022fa:	69db      	ldr	r3, [r3, #28]
 80022fc:	021b      	lsls	r3, r3, #8
 80022fe:	495b      	ldr	r1, [pc, #364]	@ (800246c <HAL_RCC_OscConfig+0x270>)
 8002300:	4313      	orrs	r3, r2
 8002302:	604b      	str	r3, [r1, #4]

          /* Decrease number of wait states update if necessary */
          /* Only possible when MSI is the System clock source  */
          if(sysclk_source == RCC_CFGR_SWS_MSI)
 8002304:	69bb      	ldr	r3, [r7, #24]
 8002306:	2b00      	cmp	r3, #0
 8002308:	d109      	bne.n	800231e <HAL_RCC_OscConfig+0x122>
          {
            if(RCC_SetFlashLatencyFromMSIRange(RCC_OscInitStruct->MSIClockRange) != HAL_OK)
 800230a:	687b      	ldr	r3, [r7, #4]
 800230c:	6a1b      	ldr	r3, [r3, #32]
 800230e:	4618      	mov	r0, r3
 8002310:	f000 fd14 	bl	8002d3c <RCC_SetFlashLatencyFromMSIRange>
 8002314:	4603      	mov	r3, r0
 8002316:	2b00      	cmp	r3, #0
 8002318:	d001      	beq.n	800231e <HAL_RCC_OscConfig+0x122>
            {
              return HAL_ERROR;
 800231a:	2301      	movs	r3, #1
 800231c:	e37a      	b.n	8002a14 <HAL_RCC_OscConfig+0x818>
            }
          }
        }

        /* Update the SystemCoreClock global variable */
        SystemCoreClock = HAL_RCC_GetSysClockFreq() >> (AHBPrescTable[READ_BIT(RCC->CFGR, RCC_CFGR_HPRE) >> RCC_CFGR_HPRE_Pos] & 0x1FU);
 800231e:	f000 fc81 	bl	8002c24 <HAL_RCC_GetSysClockFreq>
 8002322:	4602      	mov	r2, r0
 8002324:	4b51      	ldr	r3, [pc, #324]	@ (800246c <HAL_RCC_OscConfig+0x270>)
 8002326:	689b      	ldr	r3, [r3, #8]
 8002328:	091b      	lsrs	r3, r3, #4
 800232a:	f003 030f 	and.w	r3, r3, #15
 800232e:	4950      	ldr	r1, [pc, #320]	@ (8002470 <HAL_RCC_OscConfig+0x274>)
 8002330:	5ccb      	ldrb	r3, [r1, r3]
 8002332:	f003 031f 	and.w	r3, r3, #31
 8002336:	fa22 f303 	lsr.w	r3, r2, r3
 800233a:	4a4e      	ldr	r2, [pc, #312]	@ (8002474 <HAL_RCC_OscConfig+0x278>)
 800233c:	6013      	str	r3, [r2, #0]

        /* Configure the source of time base considering new system clocks settings*/
        status = HAL_InitTick(uwTickPrio);
 800233e:	4b4e      	ldr	r3, [pc, #312]	@ (8002478 <HAL_RCC_OscConfig+0x27c>)
 8002340:	681b      	ldr	r3, [r3, #0]
 8002342:	4618      	mov	r0, r3
 8002344:	f7ff fc0e 	bl	8001b64 <HAL_InitTick>
 8002348:	4603      	mov	r3, r0
 800234a:	73fb      	strb	r3, [r7, #15]
        if(status != HAL_OK)
 800234c:	7bfb      	ldrb	r3, [r7, #15]
 800234e:	2b00      	cmp	r3, #0
 8002350:	d052      	beq.n	80023f8 <HAL_RCC_OscConfig+0x1fc>
        {
          return status;
 8002352:	7bfb      	ldrb	r3, [r7, #15]
 8002354:	e35e      	b.n	8002a14 <HAL_RCC_OscConfig+0x818>
      }
    }
    else
    {
      /* Check the MSI State */
      if(RCC_OscInitStruct->MSIState != RCC_MSI_OFF)
 8002356:	687b      	ldr	r3, [r7, #4]
 8002358:	699b      	ldr	r3, [r3, #24]
 800235a:	2b00      	cmp	r3, #0
 800235c:	d032      	beq.n	80023c4 <HAL_RCC_OscConfig+0x1c8>
      {
        /* Enable the Internal High Speed oscillator (MSI). */
        __HAL_RCC_MSI_ENABLE();
 800235e:	4b43      	ldr	r3, [pc, #268]	@ (800246c <HAL_RCC_OscConfig+0x270>)
 8002360:	681b      	ldr	r3, [r3, #0]
 8002362:	4a42      	ldr	r2, [pc, #264]	@ (800246c <HAL_RCC_OscConfig+0x270>)
 8002364:	f043 0301 	orr.w	r3, r3, #1
 8002368:	6013      	str	r3, [r2, #0]

        /* Get timeout */
        tickstart = HAL_GetTick();
 800236a:	f7ff fc4b 	bl	8001c04 <HAL_GetTick>
 800236e:	6138      	str	r0, [r7, #16]

        /* Wait till MSI is ready */
        while(READ_BIT(RCC->CR, RCC_CR_MSIRDY) == 0U)
 8002370:	e008      	b.n	8002384 <HAL_RCC_OscConfig+0x188>
        {
          if((HAL_GetTick() - tickstart) > MSI_TIMEOUT_VALUE)
 8002372:	f7ff fc47 	bl	8001c04 <HAL_GetTick>
 8002376:	4602      	mov	r2, r0
 8002378:	693b      	ldr	r3, [r7, #16]
 800237a:	1ad3      	subs	r3, r2, r3
 800237c:	2b02      	cmp	r3, #2
 800237e:	d901      	bls.n	8002384 <HAL_RCC_OscConfig+0x188>
          {
            return HAL_TIMEOUT;
 8002380:	2303      	movs	r3, #3
 8002382:	e347      	b.n	8002a14 <HAL_RCC_OscConfig+0x818>
        while(READ_BIT(RCC->CR, RCC_CR_MSIRDY) == 0U)
 8002384:	4b39      	ldr	r3, [pc, #228]	@ (800246c <HAL_RCC_OscConfig+0x270>)
 8002386:	681b      	ldr	r3, [r3, #0]
 8002388:	f003 0302 	and.w	r3, r3, #2
 800238c:	2b00      	cmp	r3, #0
 800238e:	d0f0      	beq.n	8002372 <HAL_RCC_OscConfig+0x176>
          }
        }
         /* Selects the Multiple Speed oscillator (MSI) clock range .*/
        __HAL_RCC_MSI_RANGE_CONFIG(RCC_OscInitStruct->MSIClockRange);
 8002390:	4b36      	ldr	r3, [pc, #216]	@ (800246c <HAL_RCC_OscConfig+0x270>)
 8002392:	681b      	ldr	r3, [r3, #0]
 8002394:	4a35      	ldr	r2, [pc, #212]	@ (800246c <HAL_RCC_OscConfig+0x270>)
 8002396:	f043 0308 	orr.w	r3, r3, #8
 800239a:	6013      	str	r3, [r2, #0]
 800239c:	4b33      	ldr	r3, [pc, #204]	@ (800246c <HAL_RCC_OscConfig+0x270>)
 800239e:	681b      	ldr	r3, [r3, #0]
 80023a0:	f023 02f0 	bic.w	r2, r3, #240	@ 0xf0
 80023a4:	687b      	ldr	r3, [r7, #4]
 80023a6:	6a1b      	ldr	r3, [r3, #32]
 80023a8:	4930      	ldr	r1, [pc, #192]	@ (800246c <HAL_RCC_OscConfig+0x270>)
 80023aa:	4313      	orrs	r3, r2
 80023ac:	600b      	str	r3, [r1, #0]
         /* Adjusts the Multiple Speed oscillator (MSI) calibration value.*/
        __HAL_RCC_MSI_CALIBRATIONVALUE_ADJUST(RCC_OscInitStruct->MSICalibrationValue);
 80023ae:	4b2f      	ldr	r3, [pc, #188]	@ (800246c <HAL_RCC_OscConfig+0x270>)
 80023b0:	685b      	ldr	r3, [r3, #4]
 80023b2:	f423 427f 	bic.w	r2, r3, #65280	@ 0xff00
 80023b6:	687b      	ldr	r3, [r7, #4]
 80023b8:	69db      	ldr	r3, [r3, #28]
 80023ba:	021b      	lsls	r3, r3, #8
 80023bc:	492b      	ldr	r1, [pc, #172]	@ (800246c <HAL_RCC_OscConfig+0x270>)
 80023be:	4313      	orrs	r3, r2
 80023c0:	604b      	str	r3, [r1, #4]
 80023c2:	e01a      	b.n	80023fa <HAL_RCC_OscConfig+0x1fe>

      }
      else
      {
        /* Disable the Internal High Speed oscillator (MSI). */
        __HAL_RCC_MSI_DISABLE();
 80023c4:	4b29      	ldr	r3, [pc, #164]	@ (800246c <HAL_RCC_OscConfig+0x270>)
 80023c6:	681b      	ldr	r3, [r3, #0]
 80023c8:	4a28      	ldr	r2, [pc, #160]	@ (800246c <HAL_RCC_OscConfig+0x270>)
 80023ca:	f023 0301 	bic.w	r3, r3, #1
 80023ce:	6013      	str	r3, [r2, #0]

        /* Get timeout */
        tickstart = HAL_GetTick();
 80023d0:	f7ff fc18 	bl	8001c04 <HAL_GetTick>
 80023d4:	6138      	str	r0, [r7, #16]

        /* Wait till MSI is ready */
        while(READ_BIT(RCC->CR, RCC_CR_MSIRDY) != 0U)
 80023d6:	e008      	b.n	80023ea <HAL_RCC_OscConfig+0x1ee>
        {
          if((HAL_GetTick() - tickstart) > MSI_TIMEOUT_VALUE)
 80023d8:	f7ff fc14 	bl	8001c04 <HAL_GetTick>
 80023dc:	4602      	mov	r2, r0
 80023de:	693b      	ldr	r3, [r7, #16]
 80023e0:	1ad3      	subs	r3, r2, r3
 80023e2:	2b02      	cmp	r3, #2
 80023e4:	d901      	bls.n	80023ea <HAL_RCC_OscConfig+0x1ee>
          {
            return HAL_TIMEOUT;
 80023e6:	2303      	movs	r3, #3
 80023e8:	e314      	b.n	8002a14 <HAL_RCC_OscConfig+0x818>
        while(READ_BIT(RCC->CR, RCC_CR_MSIRDY) != 0U)
 80023ea:	4b20      	ldr	r3, [pc, #128]	@ (800246c <HAL_RCC_OscConfig+0x270>)
 80023ec:	681b      	ldr	r3, [r3, #0]
 80023ee:	f003 0302 	and.w	r3, r3, #2
 80023f2:	2b00      	cmp	r3, #0
 80023f4:	d1f0      	bne.n	80023d8 <HAL_RCC_OscConfig+0x1dc>
 80023f6:	e000      	b.n	80023fa <HAL_RCC_OscConfig+0x1fe>
      if((READ_BIT(RCC->CR, RCC_CR_MSIRDY) != 0U) && (RCC_OscInitStruct->MSIState == RCC_MSI_OFF))
 80023f8:	bf00      	nop
        }
      }
    }
  }
  /*------------------------------- HSE Configuration ------------------------*/
  if(((RCC_OscInitStruct->OscillatorType) & RCC_OSCILLATORTYPE_HSE) == RCC_OSCILLATORTYPE_HSE)
 80023fa:	687b      	ldr	r3, [r7, #4]
 80023fc:	681b      	ldr	r3, [r3, #0]
 80023fe:	f003 0301 	and.w	r3, r3, #1
 8002402:	2b00      	cmp	r3, #0
 8002404:	d073      	beq.n	80024ee <HAL_RCC_OscConfig+0x2f2>
  {
    /* Check the parameters */
    assert_param(IS_RCC_HSE(RCC_OscInitStruct->HSEState));

    /* When the HSE is used as system clock or clock source for PLL in these cases it is not allowed to be disabled */
    if((sysclk_source == RCC_CFGR_SWS_HSE) ||
 8002406:	69bb      	ldr	r3, [r7, #24]
 8002408:	2b08      	cmp	r3, #8
 800240a:	d005      	beq.n	8002418 <HAL_RCC_OscConfig+0x21c>
 800240c:	69bb      	ldr	r3, [r7, #24]
 800240e:	2b0c      	cmp	r3, #12
 8002410:	d10e      	bne.n	8002430 <HAL_RCC_OscConfig+0x234>
       ((sysclk_source == RCC_CFGR_SWS_PLL) && (pll_config == RCC_PLLSOURCE_HSE)))
 8002412:	697b      	ldr	r3, [r7, #20]
 8002414:	2b03      	cmp	r3, #3
 8002416:	d10b      	bne.n	8002430 <HAL_RCC_OscConfig+0x234>
    {
      if((READ_BIT(RCC->CR, RCC_CR_HSERDY) != 0U) && (RCC_OscInitStruct->HSEState == RCC_HSE_OFF))
 8002418:	4b14      	ldr	r3, [pc, #80]	@ (800246c <HAL_RCC_OscConfig+0x270>)
 800241a:	681b      	ldr	r3, [r3, #0]
 800241c:	f403 3300 	and.w	r3, r3, #131072	@ 0x20000
 8002420:	2b00      	cmp	r3, #0
 8002422:	d063      	beq.n	80024ec <HAL_RCC_OscConfig+0x2f0>
 8002424:	687b      	ldr	r3, [r7, #4]
 8002426:	685b      	ldr	r3, [r3, #4]
 8002428:	2b00      	cmp	r3, #0
 800242a:	d15f      	bne.n	80024ec <HAL_RCC_OscConfig+0x2f0>
      {
        return HAL_ERROR;
 800242c:	2301      	movs	r3, #1
 800242e:	e2f1      	b.n	8002a14 <HAL_RCC_OscConfig+0x818>
      }
    }
    else
    {
      /* Set the new HSE configuration ---------------------------------------*/
      __HAL_RCC_HSE_CONFIG(RCC_OscInitStruct->HSEState);
 8002430:	687b      	ldr	r3, [r7, #4]
 8002432:	685b      	ldr	r3, [r3, #4]
 8002434:	f5b3 3f80 	cmp.w	r3, #65536	@ 0x10000
 8002438:	d106      	bne.n	8002448 <HAL_RCC_OscConfig+0x24c>
 800243a:	4b0c      	ldr	r3, [pc, #48]	@ (800246c <HAL_RCC_OscConfig+0x270>)
 800243c:	681b      	ldr	r3, [r3, #0]
 800243e:	4a0b      	ldr	r2, [pc, #44]	@ (800246c <HAL_RCC_OscConfig+0x270>)
 8002440:	f443 3380 	orr.w	r3, r3, #65536	@ 0x10000
 8002444:	6013      	str	r3, [r2, #0]
 8002446:	e025      	b.n	8002494 <HAL_RCC_OscConfig+0x298>
 8002448:	687b      	ldr	r3, [r7, #4]
 800244a:	685b      	ldr	r3, [r3, #4]
 800244c:	f5b3 2fa0 	cmp.w	r3, #327680	@ 0x50000
 8002450:	d114      	bne.n	800247c <HAL_RCC_OscConfig+0x280>
 8002452:	4b06      	ldr	r3, [pc, #24]	@ (800246c <HAL_RCC_OscConfig+0x270>)
 8002454:	681b      	ldr	r3, [r3, #0]
 8002456:	4a05      	ldr	r2, [pc, #20]	@ (800246c <HAL_RCC_OscConfig+0x270>)
 8002458:	f443 2380 	orr.w	r3, r3, #262144	@ 0x40000
 800245c:	6013      	str	r3, [r2, #0]
 800245e:	4b03      	ldr	r3, [pc, #12]	@ (800246c <HAL_RCC_OscConfig+0x270>)
 8002460:	681b      	ldr	r3, [r3, #0]
 8002462:	4a02      	ldr	r2, [pc, #8]	@ (800246c <HAL_RCC_OscConfig+0x270>)
 8002464:	f443 3380 	orr.w	r3, r3, #65536	@ 0x10000
 8002468:	6013      	str	r3, [r2, #0]
 800246a:	e013      	b.n	8002494 <HAL_RCC_OscConfig+0x298>
 800246c:	40021000 	.word	0x40021000
 8002470:	080044a4 	.word	0x080044a4
 8002474:	2000c8a0 	.word	0x2000c8a0
 8002478:	2000c8a4 	.word	0x2000c8a4
 800247c:	4ba0      	ldr	r3, [pc, #640]	@ (8002700 <HAL_RCC_OscConfig+0x504>)
 800247e:	681b      	ldr	r3, [r3, #0]
 8002480:	4a9f      	ldr	r2, [pc, #636]	@ (8002700 <HAL_RCC_OscConfig+0x504>)
 8002482:	f423 3380 	bic.w	r3, r3, #65536	@ 0x10000
 8002486:	6013      	str	r3, [r2, #0]
 8002488:	4b9d      	ldr	r3, [pc, #628]	@ (8002700 <HAL_RCC_OscConfig+0x504>)
 800248a:	681b      	ldr	r3, [r3, #0]
 800248c:	4a9c      	ldr	r2, [pc, #624]	@ (8002700 <HAL_RCC_OscConfig+0x504>)
 800248e:	f423 2380 	bic.w	r3, r3, #262144	@ 0x40000
 8002492:	6013      	str	r3, [r2, #0]

      /* Check the HSE State */
      if(RCC_OscInitStruct->HSEState != RCC_HSE_OFF)
 8002494:	687b      	ldr	r3, [r7, #4]
 8002496:	685b      	ldr	r3, [r3, #4]
 8002498:	2b00      	cmp	r3, #0
 800249a:	d013      	beq.n	80024c4 <HAL_RCC_OscConfig+0x2c8>
      {
        /* Get Start Tick*/
        tickstart = HAL_GetTick();
 800249c:	f7ff fbb2 	bl	8001c04 <HAL_GetTick>
 80024a0:	6138      	str	r0, [r7, #16]

        /* Wait till HSE is ready */
        while(READ_BIT(RCC->CR, RCC_CR_HSERDY) == 0U)
 80024a2:	e008      	b.n	80024b6 <HAL_RCC_OscConfig+0x2ba>
        {
          if((HAL_GetTick() - tickstart) > HSE_TIMEOUT_VALUE)
 80024a4:	f7ff fbae 	bl	8001c04 <HAL_GetTick>
 80024a8:	4602      	mov	r2, r0
 80024aa:	693b      	ldr	r3, [r7, #16]
 80024ac:	1ad3      	subs	r3, r2, r3
 80024ae:	2b64      	cmp	r3, #100	@ 0x64
 80024b0:	d901      	bls.n	80024b6 <HAL_RCC_OscConfig+0x2ba>
          {
            return HAL_TIMEOUT;
 80024b2:	2303      	movs	r3, #3
 80024b4:	e2ae      	b.n	8002a14 <HAL_RCC_OscConfig+0x818>
        while(READ_BIT(RCC->CR, RCC_CR_HSERDY) == 0U)
 80024b6:	4b92      	ldr	r3, [pc, #584]	@ (8002700 <HAL_RCC_OscConfig+0x504>)
 80024b8:	681b      	ldr	r3, [r3, #0]
 80024ba:	f403 3300 	and.w	r3, r3, #131072	@ 0x20000
 80024be:	2b00      	cmp	r3, #0
 80024c0:	d0f0      	beq.n	80024a4 <HAL_RCC_OscConfig+0x2a8>
 80024c2:	e014      	b.n	80024ee <HAL_RCC_OscConfig+0x2f2>
        }
      }
      else
      {
        /* Get Start Tick*/
        tickstart = HAL_GetTick();
 80024c4:	f7ff fb9e 	bl	8001c04 <HAL_GetTick>
 80024c8:	6138      	str	r0, [r7, #16]

        /* Wait till HSE is disabled */
        while(READ_BIT(RCC->CR, RCC_CR_HSERDY) != 0U)
 80024ca:	e008      	b.n	80024de <HAL_RCC_OscConfig+0x2e2>
        {
          if((HAL_GetTick() - tickstart) > HSE_TIMEOUT_VALUE)
 80024cc:	f7ff fb9a 	bl	8001c04 <HAL_GetTick>
 80024d0:	4602      	mov	r2, r0
 80024d2:	693b      	ldr	r3, [r7, #16]
 80024d4:	1ad3      	subs	r3, r2, r3
 80024d6:	2b64      	cmp	r3, #100	@ 0x64
 80024d8:	d901      	bls.n	80024de <HAL_RCC_OscConfig+0x2e2>
          {
            return HAL_TIMEOUT;
 80024da:	2303      	movs	r3, #3
 80024dc:	e29a      	b.n	8002a14 <HAL_RCC_OscConfig+0x818>
        while(READ_BIT(RCC->CR, RCC_CR_HSERDY) != 0U)
 80024de:	4b88      	ldr	r3, [pc, #544]	@ (8002700 <HAL_RCC_OscConfig+0x504>)
 80024e0:	681b      	ldr	r3, [r3, #0]
 80024e2:	f403 3300 	and.w	r3, r3, #131072	@ 0x20000
 80024e6:	2b00      	cmp	r3, #0
 80024e8:	d1f0      	bne.n	80024cc <HAL_RCC_OscConfig+0x2d0>
 80024ea:	e000      	b.n	80024ee <HAL_RCC_OscConfig+0x2f2>
      if((READ_BIT(RCC->CR, RCC_CR_HSERDY) != 0U) && (RCC_OscInitStruct->HSEState == RCC_HSE_OFF))
 80024ec:	bf00      	nop
        }
      }
    }
  }
  /*----------------------------- HSI Configuration --------------------------*/
  if(((RCC_OscInitStruct->OscillatorType) & RCC_OSCILLATORTYPE_HSI) == RCC_OSCILLATORTYPE_HSI)
 80024ee:	687b      	ldr	r3, [r7, #4]
 80024f0:	681b      	ldr	r3, [r3, #0]
 80024f2:	f003 0302 	and.w	r3, r3, #2
 80024f6:	2b00      	cmp	r3, #0
 80024f8:	d060      	beq.n	80025bc <HAL_RCC_OscConfig+0x3c0>
    /* Check the parameters */
    assert_param(IS_RCC_HSI(RCC_OscInitStruct->HSIState));
    assert_param(IS_RCC_HSI_CALIBRATION_VALUE(RCC_OscInitStruct->HSICalibrationValue));

    /* Check if HSI is used as system clock or as PLL source when PLL is selected as system clock */
    if((sysclk_source == RCC_CFGR_SWS_HSI) ||
 80024fa:	69bb      	ldr	r3, [r7, #24]
 80024fc:	2b04      	cmp	r3, #4
 80024fe:	d005      	beq.n	800250c <HAL_RCC_OscConfig+0x310>
 8002500:	69bb      	ldr	r3, [r7, #24]
 8002502:	2b0c      	cmp	r3, #12
 8002504:	d119      	bne.n	800253a <HAL_RCC_OscConfig+0x33e>
       ((sysclk_source == RCC_CFGR_SWS_PLL) && (pll_config == RCC_PLLSOURCE_HSI)))
 8002506:	697b      	ldr	r3, [r7, #20]
 8002508:	2b02      	cmp	r3, #2
 800250a:	d116      	bne.n	800253a <HAL_RCC_OscConfig+0x33e>
    {
      /* When HSI is used as system clock it will not be disabled */
      if((READ_BIT(RCC->CR, RCC_CR_HSIRDY) != 0U) && (RCC_OscInitStruct->HSIState == RCC_HSI_OFF))
 800250c:	4b7c      	ldr	r3, [pc, #496]	@ (8002700 <HAL_RCC_OscConfig+0x504>)
 800250e:	681b      	ldr	r3, [r3, #0]
 8002510:	f403 6380 	and.w	r3, r3, #1024	@ 0x400
 8002514:	2b00      	cmp	r3, #0
 8002516:	d005      	beq.n	8002524 <HAL_RCC_OscConfig+0x328>
 8002518:	687b      	ldr	r3, [r7, #4]
 800251a:	68db      	ldr	r3, [r3, #12]
 800251c:	2b00      	cmp	r3, #0
 800251e:	d101      	bne.n	8002524 <HAL_RCC_OscConfig+0x328>
      {
        return HAL_ERROR;
 8002520:	2301      	movs	r3, #1
 8002522:	e277      	b.n	8002a14 <HAL_RCC_OscConfig+0x818>
      }
      /* Otherwise, just the calibration is allowed */
      else
      {
        /* Adjusts the Internal High Speed oscillator (HSI) calibration value.*/
        __HAL_RCC_HSI_CALIBRATIONVALUE_ADJUST(RCC_OscInitStruct->HSICalibrationValue);
 8002524:	4b76      	ldr	r3, [pc, #472]	@ (8002700 <HAL_RCC_OscConfig+0x504>)
 8002526:	685b      	ldr	r3, [r3, #4]
 8002528:	f023 52f8 	bic.w	r2, r3, #520093696	@ 0x1f000000
 800252c:	687b      	ldr	r3, [r7, #4]
 800252e:	691b      	ldr	r3, [r3, #16]
 8002530:	061b      	lsls	r3, r3, #24
 8002532:	4973      	ldr	r1, [pc, #460]	@ (8002700 <HAL_RCC_OscConfig+0x504>)
 8002534:	4313      	orrs	r3, r2
 8002536:	604b      	str	r3, [r1, #4]
      if((READ_BIT(RCC->CR, RCC_CR_HSIRDY) != 0U) && (RCC_OscInitStruct->HSIState == RCC_HSI_OFF))
 8002538:	e040      	b.n	80025bc <HAL_RCC_OscConfig+0x3c0>
      }
    }
    else
    {
      /* Check the HSI State */
      if(RCC_OscInitStruct->HSIState != RCC_HSI_OFF)
 800253a:	687b      	ldr	r3, [r7, #4]
 800253c:	68db      	ldr	r3, [r3, #12]
 800253e:	2b00      	cmp	r3, #0
 8002540:	d023      	beq.n	800258a <HAL_RCC_OscConfig+0x38e>
      {
        /* Enable the Internal High Speed oscillator (HSI). */
        __HAL_RCC_HSI_ENABLE();
 8002542:	4b6f      	ldr	r3, [pc, #444]	@ (8002700 <HAL_RCC_OscConfig+0x504>)
 8002544:	681b      	ldr	r3, [r3, #0]
 8002546:	4a6e      	ldr	r2, [pc, #440]	@ (8002700 <HAL_RCC_OscConfig+0x504>)
 8002548:	f443 7380 	orr.w	r3, r3, #256	@ 0x100
 800254c:	6013      	str	r3, [r2, #0]

        /* Get Start Tick*/
        tickstart = HAL_GetTick();
 800254e:	f7ff fb59 	bl	8001c04 <HAL_GetTick>
 8002552:	6138      	str	r0, [r7, #16]

        /* Wait till HSI is ready */
        while(READ_BIT(RCC->CR, RCC_CR_HSIRDY) == 0U)
 8002554:	e008      	b.n	8002568 <HAL_RCC_OscConfig+0x36c>
        {
          if((HAL_GetTick() - tickstart) > HSI_TIMEOUT_VALUE)
 8002556:	f7ff fb55 	bl	8001c04 <HAL_GetTick>
 800255a:	4602      	mov	r2, r0
 800255c:	693b      	ldr	r3, [r7, #16]
 800255e:	1ad3      	subs	r3, r2, r3
 8002560:	2b02      	cmp	r3, #2
 8002562:	d901      	bls.n	8002568 <HAL_RCC_OscConfig+0x36c>
          {
            return HAL_TIMEOUT;
 8002564:	2303      	movs	r3, #3
 8002566:	e255      	b.n	8002a14 <HAL_RCC_OscConfig+0x818>
        while(READ_BIT(RCC->CR, RCC_CR_HSIRDY) == 0U)
 8002568:	4b65      	ldr	r3, [pc, #404]	@ (8002700 <HAL_RCC_OscConfig+0x504>)
 800256a:	681b      	ldr	r3, [r3, #0]
 800256c:	f403 6380 	and.w	r3, r3, #1024	@ 0x400
 8002570:	2b00      	cmp	r3, #0
 8002572:	d0f0      	beq.n	8002556 <HAL_RCC_OscConfig+0x35a>
          }
        }

        /* Adjusts the Internal High Speed oscillator (HSI) calibration value.*/
        __HAL_RCC_HSI_CALIBRATIONVALUE_ADJUST(RCC_OscInitStruct->HSICalibrationValue);
 8002574:	4b62      	ldr	r3, [pc, #392]	@ (8002700 <HAL_RCC_OscConfig+0x504>)
 8002576:	685b      	ldr	r3, [r3, #4]
 8002578:	f023 52f8 	bic.w	r2, r3, #520093696	@ 0x1f000000
 800257c:	687b      	ldr	r3, [r7, #4]
 800257e:	691b      	ldr	r3, [r3, #16]
 8002580:	061b      	lsls	r3, r3, #24
 8002582:	495f      	ldr	r1, [pc, #380]	@ (8002700 <HAL_RCC_OscConfig+0x504>)
 8002584:	4313      	orrs	r3, r2
 8002586:	604b      	str	r3, [r1, #4]
 8002588:	e018      	b.n	80025bc <HAL_RCC_OscConfig+0x3c0>
      }
      else
      {
        /* Disable the Internal High Speed oscillator (HSI). */
        __HAL_RCC_HSI_DISABLE();
 800258a:	4b5d      	ldr	r3, [pc, #372]	@ (8002700 <HAL_RCC_OscConfig+0x504>)
 800258c:	681b      	ldr	r3, [r3, #0]
 800258e:	4a5c      	ldr	r2, [pc, #368]	@ (8002700 <HAL_RCC_OscConfig+0x504>)
 8002590:	f423 7380 	bic.w	r3, r3, #256	@ 0x100
 8002594:	6013      	str	r3, [r2, #0]

        /* Get Start Tick*/
        tickstart = HAL_GetTick();
 8002596:	f7ff fb35 	bl	8001c04 <HAL_GetTick>
 800259a:	6138      	str	r0, [r7, #16]

        /* Wait till HSI is disabled */
        while(READ_BIT(RCC->CR, RCC_CR_HSIRDY) != 0U)
 800259c:	e008      	b.n	80025b0 <HAL_RCC_OscConfig+0x3b4>
        {
          if((HAL_GetTick() - tickstart) > HSI_TIMEOUT_VALUE)
 800259e:	f7ff fb31 	bl	8001c04 <HAL_GetTick>
 80025a2:	4602      	mov	r2, r0
 80025a4:	693b      	ldr	r3, [r7, #16]
 80025a6:	1ad3      	subs	r3, r2, r3
 80025a8:	2b02      	cmp	r3, #2
 80025aa:	d901      	bls.n	80025b0 <HAL_RCC_OscConfig+0x3b4>
          {
            return HAL_TIMEOUT;
 80025ac:	2303      	movs	r3, #3
 80025ae:	e231      	b.n	8002a14 <HAL_RCC_OscConfig+0x818>
        while(READ_BIT(RCC->CR, RCC_CR_HSIRDY) != 0U)
 80025b0:	4b53      	ldr	r3, [pc, #332]	@ (8002700 <HAL_RCC_OscConfig+0x504>)
 80025b2:	681b      	ldr	r3, [r3, #0]
 80025b4:	f403 6380 	and.w	r3, r3, #1024	@ 0x400
 80025b8:	2b00      	cmp	r3, #0
 80025ba:	d1f0      	bne.n	800259e <HAL_RCC_OscConfig+0x3a2>
        }
      }
    }
  }
  /*------------------------------ LSI Configuration -------------------------*/
  if(((RCC_OscInitStruct->OscillatorType) & RCC_OSCILLATORTYPE_LSI) == RCC_OSCILLATORTYPE_LSI)
 80025bc:	687b      	ldr	r3, [r7, #4]
 80025be:	681b      	ldr	r3, [r3, #0]
 80025c0:	f003 0308 	and.w	r3, r3, #8
 80025c4:	2b00      	cmp	r3, #0
 80025c6:	d03c      	beq.n	8002642 <HAL_RCC_OscConfig+0x446>
  {
    /* Check the parameters */
    assert_param(IS_RCC_LSI(RCC_OscInitStruct->LSIState));

    /* Check the LSI State */
    if(RCC_OscInitStruct->LSIState != RCC_LSI_OFF)
 80025c8:	687b      	ldr	r3, [r7, #4]
 80025ca:	695b      	ldr	r3, [r3, #20]
 80025cc:	2b00      	cmp	r3, #0
 80025ce:	d01c      	beq.n	800260a <HAL_RCC_OscConfig+0x40e>
        MODIFY_REG(RCC->CSR, RCC_CSR_LSIPREDIV, RCC_OscInitStruct->LSIDiv);
      }
#endif /* RCC_CSR_LSIPREDIV */

      /* Enable the Internal Low Speed oscillator (LSI). */
      __HAL_RCC_LSI_ENABLE();
 80025d0:	4b4b      	ldr	r3, [pc, #300]	@ (8002700 <HAL_RCC_OscConfig+0x504>)
 80025d2:	f8d3 3094 	ldr.w	r3, [r3, #148]	@ 0x94
 80025d6:	4a4a      	ldr	r2, [pc, #296]	@ (8002700 <HAL_RCC_OscConfig+0x504>)
 80025d8:	f043 0301 	orr.w	r3, r3, #1
 80025dc:	f8c2 3094 	str.w	r3, [r2, #148]	@ 0x94

      /* Get Start Tick*/
      tickstart = HAL_GetTick();
 80025e0:	f7ff fb10 	bl	8001c04 <HAL_GetTick>
 80025e4:	6138      	str	r0, [r7, #16]

      /* Wait till LSI is ready */
      while(READ_BIT(RCC->CSR, RCC_CSR_LSIRDY) == 0U)
 80025e6:	e008      	b.n	80025fa <HAL_RCC_OscConfig+0x3fe>
      {
        if((HAL_GetTick() - tickstart) > LSI_TIMEOUT_VALUE)
 80025e8:	f7ff fb0c 	bl	8001c04 <HAL_GetTick>
 80025ec:	4602      	mov	r2, r0
 80025ee:	693b      	ldr	r3, [r7, #16]
 80025f0:	1ad3      	subs	r3, r2, r3
 80025f2:	2b02      	cmp	r3, #2
 80025f4:	d901      	bls.n	80025fa <HAL_RCC_OscConfig+0x3fe>
        {
          return HAL_TIMEOUT;
 80025f6:	2303      	movs	r3, #3
 80025f8:	e20c      	b.n	8002a14 <HAL_RCC_OscConfig+0x818>
      while(READ_BIT(RCC->CSR, RCC_CSR_LSIRDY) == 0U)
 80025fa:	4b41      	ldr	r3, [pc, #260]	@ (8002700 <HAL_RCC_OscConfig+0x504>)
 80025fc:	f8d3 3094 	ldr.w	r3, [r3, #148]	@ 0x94
 8002600:	f003 0302 	and.w	r3, r3, #2
 8002604:	2b00      	cmp	r3, #0
 8002606:	d0ef      	beq.n	80025e8 <HAL_RCC_OscConfig+0x3ec>
 8002608:	e01b      	b.n	8002642 <HAL_RCC_OscConfig+0x446>
      }
    }
    else
    {
      /* Disable the Internal Low Speed oscillator (LSI). */
      __HAL_RCC_LSI_DISABLE();
 800260a:	4b3d      	ldr	r3, [pc, #244]	@ (8002700 <HAL_RCC_OscConfig+0x504>)
 800260c:	f8d3 3094 	ldr.w	r3, [r3, #148]	@ 0x94
 8002610:	4a3b      	ldr	r2, [pc, #236]	@ (8002700 <HAL_RCC_OscConfig+0x504>)
 8002612:	f023 0301 	bic.w	r3, r3, #1
 8002616:	f8c2 3094 	str.w	r3, [r2, #148]	@ 0x94

      /* Get Start Tick*/
      tickstart = HAL_GetTick();
 800261a:	f7ff faf3 	bl	8001c04 <HAL_GetTick>
 800261e:	6138      	str	r0, [r7, #16]

      /* Wait till LSI is disabled */
      while(READ_BIT(RCC->CSR, RCC_CSR_LSIRDY) != 0U)
 8002620:	e008      	b.n	8002634 <HAL_RCC_OscConfig+0x438>
      {
        if((HAL_GetTick() - tickstart) > LSI_TIMEOUT_VALUE)
 8002622:	f7ff faef 	bl	8001c04 <HAL_GetTick>
 8002626:	4602      	mov	r2, r0
 8002628:	693b      	ldr	r3, [r7, #16]
 800262a:	1ad3      	subs	r3, r2, r3
 800262c:	2b02      	cmp	r3, #2
 800262e:	d901      	bls.n	8002634 <HAL_RCC_OscConfig+0x438>
        {
          return HAL_TIMEOUT;
 8002630:	2303      	movs	r3, #3
 8002632:	e1ef      	b.n	8002a14 <HAL_RCC_OscConfig+0x818>
      while(READ_BIT(RCC->CSR, RCC_CSR_LSIRDY) != 0U)
 8002634:	4b32      	ldr	r3, [pc, #200]	@ (8002700 <HAL_RCC_OscConfig+0x504>)
 8002636:	f8d3 3094 	ldr.w	r3, [r3, #148]	@ 0x94
 800263a:	f003 0302 	and.w	r3, r3, #2
 800263e:	2b00      	cmp	r3, #0
 8002640:	d1ef      	bne.n	8002622 <HAL_RCC_OscConfig+0x426>
        }
      }
    }
  }
  /*------------------------------ LSE Configuration -------------------------*/
  if(((RCC_OscInitStruct->OscillatorType) & RCC_OSCILLATORTYPE_LSE) == RCC_OSCILLATORTYPE_LSE)
 8002642:	687b      	ldr	r3, [r7, #4]
 8002644:	681b      	ldr	r3, [r3, #0]
 8002646:	f003 0304 	and.w	r3, r3, #4
 800264a:	2b00      	cmp	r3, #0
 800264c:	f000 80a6 	beq.w	800279c <HAL_RCC_OscConfig+0x5a0>
  {
    FlagStatus       pwrclkchanged = RESET;
 8002650:	2300      	movs	r3, #0
 8002652:	77fb      	strb	r3, [r7, #31]
    /* Check the parameters */
    assert_param(IS_RCC_LSE(RCC_OscInitStruct->LSEState));

    /* Update LSE configuration in Backup Domain control register    */
    /* Requires to enable write access to Backup Domain of necessary */
    if(HAL_IS_BIT_CLR(RCC->APB1ENR1, RCC_APB1ENR1_PWREN))
 8002654:	4b2a      	ldr	r3, [pc, #168]	@ (8002700 <HAL_RCC_OscConfig+0x504>)
 8002656:	6d9b      	ldr	r3, [r3, #88]	@ 0x58
 8002658:	f003 5380 	and.w	r3, r3, #268435456	@ 0x10000000
 800265c:	2b00      	cmp	r3, #0
 800265e:	d10d      	bne.n	800267c <HAL_RCC_OscConfig+0x480>
    {
      __HAL_RCC_PWR_CLK_ENABLE();
 8002660:	4b27      	ldr	r3, [pc, #156]	@ (8002700 <HAL_RCC_OscConfig+0x504>)
 8002662:	6d9b      	ldr	r3, [r3, #88]	@ 0x58
 8002664:	4a26      	ldr	r2, [pc, #152]	@ (8002700 <HAL_RCC_OscConfig+0x504>)
 8002666:	f043 5380 	orr.w	r3, r3, #268435456	@ 0x10000000
 800266a:	6593      	str	r3, [r2, #88]	@ 0x58
 800266c:	4b24      	ldr	r3, [pc, #144]	@ (8002700 <HAL_RCC_OscConfig+0x504>)
 800266e:	6d9b      	ldr	r3, [r3, #88]	@ 0x58
 8002670:	f003 5380 	and.w	r3, r3, #268435456	@ 0x10000000
 8002674:	60bb      	str	r3, [r7, #8]
 8002676:	68bb      	ldr	r3, [r7, #8]
      pwrclkchanged = SET;
 8002678:	2301      	movs	r3, #1
 800267a:	77fb      	strb	r3, [r7, #31]
    }

    if(HAL_IS_BIT_CLR(PWR->CR1, PWR_CR1_DBP))
 800267c:	4b21      	ldr	r3, [pc, #132]	@ (8002704 <HAL_RCC_OscConfig+0x508>)
 800267e:	681b      	ldr	r3, [r3, #0]
 8002680:	f403 7380 	and.w	r3, r3, #256	@ 0x100
 8002684:	2b00      	cmp	r3, #0
 8002686:	d118      	bne.n	80026ba <HAL_RCC_OscConfig+0x4be>
    {
      /* Enable write access to Backup domain */
      SET_BIT(PWR->CR1, PWR_CR1_DBP);
 8002688:	4b1e      	ldr	r3, [pc, #120]	@ (8002704 <HAL_RCC_OscConfig+0x508>)
 800268a:	681b      	ldr	r3, [r3, #0]
 800268c:	4a1d      	ldr	r2, [pc, #116]	@ (8002704 <HAL_RCC_OscConfig+0x508>)
 800268e:	f443 7380 	orr.w	r3, r3, #256	@ 0x100
 8002692:	6013      	str	r3, [r2, #0]

      /* Wait for Backup domain Write protection disable */
      tickstart = HAL_GetTick();
 8002694:	f7ff fab6 	bl	8001c04 <HAL_GetTick>
 8002698:	6138      	str	r0, [r7, #16]

      while(HAL_IS_BIT_CLR(PWR->CR1, PWR_CR1_DBP))
 800269a:	e008      	b.n	80026ae <HAL_RCC_OscConfig+0x4b2>
      {
        if((HAL_GetTick() - tickstart) > RCC_DBP_TIMEOUT_VALUE)
 800269c:	f7ff fab2 	bl	8001c04 <HAL_GetTick>
 80026a0:	4602      	mov	r2, r0
 80026a2:	693b      	ldr	r3, [r7, #16]
 80026a4:	1ad3      	subs	r3, r2, r3
 80026a6:	2b02      	cmp	r3, #2
 80026a8:	d901      	bls.n	80026ae <HAL_RCC_OscConfig+0x4b2>
        {
          return HAL_TIMEOUT;
 80026aa:	2303      	movs	r3, #3
 80026ac:	e1b2      	b.n	8002a14 <HAL_RCC_OscConfig+0x818>
      while(HAL_IS_BIT_CLR(PWR->CR1, PWR_CR1_DBP))
 80026ae:	4b15      	ldr	r3, [pc, #84]	@ (8002704 <HAL_RCC_OscConfig+0x508>)
 80026b0:	681b      	ldr	r3, [r3, #0]
 80026b2:	f403 7380 	and.w	r3, r3, #256	@ 0x100
 80026b6:	2b00      	cmp	r3, #0
 80026b8:	d0f0      	beq.n	800269c <HAL_RCC_OscConfig+0x4a0>
    {
      CLEAR_BIT(RCC->BDCR, RCC_BDCR_LSEON);
      CLEAR_BIT(RCC->BDCR, RCC_BDCR_LSEBYP);
    }
#else
    __HAL_RCC_LSE_CONFIG(RCC_OscInitStruct->LSEState);
 80026ba:	687b      	ldr	r3, [r7, #4]
 80026bc:	689b      	ldr	r3, [r3, #8]
 80026be:	2b01      	cmp	r3, #1
 80026c0:	d108      	bne.n	80026d4 <HAL_RCC_OscConfig+0x4d8>
 80026c2:	4b0f      	ldr	r3, [pc, #60]	@ (8002700 <HAL_RCC_OscConfig+0x504>)
 80026c4:	f8d3 3090 	ldr.w	r3, [r3, #144]	@ 0x90
 80026c8:	4a0d      	ldr	r2, [pc, #52]	@ (8002700 <HAL_RCC_OscConfig+0x504>)
 80026ca:	f043 0301 	orr.w	r3, r3, #1
 80026ce:	f8c2 3090 	str.w	r3, [r2, #144]	@ 0x90
 80026d2:	e029      	b.n	8002728 <HAL_RCC_OscConfig+0x52c>
 80026d4:	687b      	ldr	r3, [r7, #4]
 80026d6:	689b      	ldr	r3, [r3, #8]
 80026d8:	2b05      	cmp	r3, #5
 80026da:	d115      	bne.n	8002708 <HAL_RCC_OscConfig+0x50c>
 80026dc:	4b08      	ldr	r3, [pc, #32]	@ (8002700 <HAL_RCC_OscConfig+0x504>)
 80026de:	f8d3 3090 	ldr.w	r3, [r3, #144]	@ 0x90
 80026e2:	4a07      	ldr	r2, [pc, #28]	@ (8002700 <HAL_RCC_OscConfig+0x504>)
 80026e4:	f043 0304 	orr.w	r3, r3, #4
 80026e8:	f8c2 3090 	str.w	r3, [r2, #144]	@ 0x90
 80026ec:	4b04      	ldr	r3, [pc, #16]	@ (8002700 <HAL_RCC_OscConfig+0x504>)
 80026ee:	f8d3 3090 	ldr.w	r3, [r3, #144]	@ 0x90
 80026f2:	4a03      	ldr	r2, [pc, #12]	@ (8002700 <HAL_RCC_OscConfig+0x504>)
 80026f4:	f043 0301 	orr.w	r3, r3, #1
 80026f8:	f8c2 3090 	str.w	r3, [r2, #144]	@ 0x90
 80026fc:	e014      	b.n	8002728 <HAL_RCC_OscConfig+0x52c>
 80026fe:	bf00      	nop
 8002700:	40021000 	.word	0x40021000
 8002704:	40007000 	.word	0x40007000
 8002708:	4b9a      	ldr	r3, [pc, #616]	@ (8002974 <HAL_RCC_OscConfig+0x778>)
 800270a:	f8d3 3090 	ldr.w	r3, [r3, #144]	@ 0x90
 800270e:	4a99      	ldr	r2, [pc, #612]	@ (8002974 <HAL_RCC_OscConfig+0x778>)
 8002710:	f023 0301 	bic.w	r3, r3, #1
 8002714:	f8c2 3090 	str.w	r3, [r2, #144]	@ 0x90
 8002718:	4b96      	ldr	r3, [pc, #600]	@ (8002974 <HAL_RCC_OscConfig+0x778>)
 800271a:	f8d3 3090 	ldr.w	r3, [r3, #144]	@ 0x90
 800271e:	4a95      	ldr	r2, [pc, #596]	@ (8002974 <HAL_RCC_OscConfig+0x778>)
 8002720:	f023 0304 	bic.w	r3, r3, #4
 8002724:	f8c2 3090 	str.w	r3, [r2, #144]	@ 0x90
#endif /* RCC_BDCR_LSESYSDIS */

    /* Check the LSE State */
    if(RCC_OscInitStruct->LSEState != RCC_LSE_OFF)
 8002728:	687b      	ldr	r3, [r7, #4]
 800272a:	689b      	ldr	r3, [r3, #8]
 800272c:	2b00      	cmp	r3, #0
 800272e:	d016      	beq.n	800275e <HAL_RCC_OscConfig+0x562>
    {
      /* Get Start Tick*/
      tickstart = HAL_GetTick();
 8002730:	f7ff fa68 	bl	8001c04 <HAL_GetTick>
 8002734:	6138      	str	r0, [r7, #16]

      /* Wait till LSE is ready */
      while(READ_BIT(RCC->BDCR, RCC_BDCR_LSERDY) == 0U)
 8002736:	e00a      	b.n	800274e <HAL_RCC_OscConfig+0x552>
      {
        if((HAL_GetTick() - tickstart) > RCC_LSE_TIMEOUT_VALUE)
 8002738:	f7ff fa64 	bl	8001c04 <HAL_GetTick>
 800273c:	4602      	mov	r2, r0
 800273e:	693b      	ldr	r3, [r7, #16]
 8002740:	1ad3      	subs	r3, r2, r3
 8002742:	f241 3288 	movw	r2, #5000	@ 0x1388
 8002746:	4293      	cmp	r3, r2
 8002748:	d901      	bls.n	800274e <HAL_RCC_OscConfig+0x552>
        {
          return HAL_TIMEOUT;
 800274a:	2303      	movs	r3, #3
 800274c:	e162      	b.n	8002a14 <HAL_RCC_OscConfig+0x818>
      while(READ_BIT(RCC->BDCR, RCC_BDCR_LSERDY) == 0U)
 800274e:	4b89      	ldr	r3, [pc, #548]	@ (8002974 <HAL_RCC_OscConfig+0x778>)
 8002750:	f8d3 3090 	ldr.w	r3, [r3, #144]	@ 0x90
 8002754:	f003 0302 	and.w	r3, r3, #2
 8002758:	2b00      	cmp	r3, #0
 800275a:	d0ed      	beq.n	8002738 <HAL_RCC_OscConfig+0x53c>
 800275c:	e015      	b.n	800278a <HAL_RCC_OscConfig+0x58e>
      }
    }
    else
    {
      /* Get Start Tick*/
      tickstart = HAL_GetTick();
 800275e:	f7ff fa51 	bl	8001c04 <HAL_GetTick>
 8002762:	6138      	str	r0, [r7, #16]

      /* Wait till LSE is disabled */
      while(READ_BIT(RCC->BDCR, RCC_BDCR_LSERDY) != 0U)
 8002764:	e00a      	b.n	800277c <HAL_RCC_OscConfig+0x580>
      {
        if((HAL_GetTick() - tickstart) > RCC_LSE_TIMEOUT_VALUE)
 8002766:	f7ff fa4d 	bl	8001c04 <HAL_GetTick>
 800276a:	4602      	mov	r2, r0
 800276c:	693b      	ldr	r3, [r7, #16]
 800276e:	1ad3      	subs	r3, r2, r3
 8002770:	f241 3288 	movw	r2, #5000	@ 0x1388
 8002774:	4293      	cmp	r3, r2
 8002776:	d901      	bls.n	800277c <HAL_RCC_OscConfig+0x580>
        {
          return HAL_TIMEOUT;
 8002778:	2303      	movs	r3, #3
 800277a:	e14b      	b.n	8002a14 <HAL_RCC_OscConfig+0x818>
      while(READ_BIT(RCC->BDCR, RCC_BDCR_LSERDY) != 0U)
 800277c:	4b7d      	ldr	r3, [pc, #500]	@ (8002974 <HAL_RCC_OscConfig+0x778>)
 800277e:	f8d3 3090 	ldr.w	r3, [r3, #144]	@ 0x90
 8002782:	f003 0302 	and.w	r3, r3, #2
 8002786:	2b00      	cmp	r3, #0
 8002788:	d1ed      	bne.n	8002766 <HAL_RCC_OscConfig+0x56a>
      CLEAR_BIT(RCC->BDCR, RCC_BDCR_LSESYSDIS);
#endif /* RCC_BDCR_LSESYSDIS */
    }

    /* Restore clock configuration if changed */
    if(pwrclkchanged == SET)
 800278a:	7ffb      	ldrb	r3, [r7, #31]
 800278c:	2b01      	cmp	r3, #1
 800278e:	d105      	bne.n	800279c <HAL_RCC_OscConfig+0x5a0>
    {
      __HAL_RCC_PWR_CLK_DISABLE();
 8002790:	4b78      	ldr	r3, [pc, #480]	@ (8002974 <HAL_RCC_OscConfig+0x778>)
 8002792:	6d9b      	ldr	r3, [r3, #88]	@ 0x58
 8002794:	4a77      	ldr	r2, [pc, #476]	@ (8002974 <HAL_RCC_OscConfig+0x778>)
 8002796:	f023 5380 	bic.w	r3, r3, #268435456	@ 0x10000000
 800279a:	6593      	str	r3, [r2, #88]	@ 0x58
    }
  }
#if defined(RCC_HSI48_SUPPORT)
  /*------------------------------ HSI48 Configuration -----------------------*/
  if(((RCC_OscInitStruct->OscillatorType) & RCC_OSCILLATORTYPE_HSI48) == RCC_OSCILLATORTYPE_HSI48)
 800279c:	687b      	ldr	r3, [r7, #4]
 800279e:	681b      	ldr	r3, [r3, #0]
 80027a0:	f003 0320 	and.w	r3, r3, #32
 80027a4:	2b00      	cmp	r3, #0
 80027a6:	d03c      	beq.n	8002822 <HAL_RCC_OscConfig+0x626>
  {
    /* Check the parameters */
    assert_param(IS_RCC_HSI48(RCC_OscInitStruct->HSI48State));

    /* Check the LSI State */
    if(RCC_OscInitStruct->HSI48State != RCC_HSI48_OFF)
 80027a8:	687b      	ldr	r3, [r7, #4]
 80027aa:	6a5b      	ldr	r3, [r3, #36]	@ 0x24
 80027ac:	2b00      	cmp	r3, #0
 80027ae:	d01c      	beq.n	80027ea <HAL_RCC_OscConfig+0x5ee>
    {
      /* Enable the Internal Low Speed oscillator (HSI48). */
      __HAL_RCC_HSI48_ENABLE();
 80027b0:	4b70      	ldr	r3, [pc, #448]	@ (8002974 <HAL_RCC_OscConfig+0x778>)
 80027b2:	f8d3 3098 	ldr.w	r3, [r3, #152]	@ 0x98
 80027b6:	4a6f      	ldr	r2, [pc, #444]	@ (8002974 <HAL_RCC_OscConfig+0x778>)
 80027b8:	f043 0301 	orr.w	r3, r3, #1
 80027bc:	f8c2 3098 	str.w	r3, [r2, #152]	@ 0x98

      /* Get Start Tick*/
      tickstart = HAL_GetTick();
 80027c0:	f7ff fa20 	bl	8001c04 <HAL_GetTick>
 80027c4:	6138      	str	r0, [r7, #16]

      /* Wait till HSI48 is ready */
      while(READ_BIT(RCC->CRRCR, RCC_CRRCR_HSI48RDY) == 0U)
 80027c6:	e008      	b.n	80027da <HAL_RCC_OscConfig+0x5de>
      {
        if((HAL_GetTick() - tickstart) > HSI48_TIMEOUT_VALUE)
 80027c8:	f7ff fa1c 	bl	8001c04 <HAL_GetTick>
 80027cc:	4602      	mov	r2, r0
 80027ce:	693b      	ldr	r3, [r7, #16]
 80027d0:	1ad3      	subs	r3, r2, r3
 80027d2:	2b02      	cmp	r3, #2
 80027d4:	d901      	bls.n	80027da <HAL_RCC_OscConfig+0x5de>
        {
          return HAL_TIMEOUT;
 80027d6:	2303      	movs	r3, #3
 80027d8:	e11c      	b.n	8002a14 <HAL_RCC_OscConfig+0x818>
      while(READ_BIT(RCC->CRRCR, RCC_CRRCR_HSI48RDY) == 0U)
 80027da:	4b66      	ldr	r3, [pc, #408]	@ (8002974 <HAL_RCC_OscConfig+0x778>)
 80027dc:	f8d3 3098 	ldr.w	r3, [r3, #152]	@ 0x98
 80027e0:	f003 0302 	and.w	r3, r3, #2
 80027e4:	2b00      	cmp	r3, #0
 80027e6:	d0ef      	beq.n	80027c8 <HAL_RCC_OscConfig+0x5cc>
 80027e8:	e01b      	b.n	8002822 <HAL_RCC_OscConfig+0x626>
      }
    }
    else
    {
      /* Disable the Internal Low Speed oscillator (HSI48). */
      __HAL_RCC_HSI48_DISABLE();
 80027ea:	4b62      	ldr	r3, [pc, #392]	@ (8002974 <HAL_RCC_OscConfig+0x778>)
 80027ec:	f8d3 3098 	ldr.w	r3, [r3, #152]	@ 0x98
 80027f0:	4a60      	ldr	r2, [pc, #384]	@ (8002974 <HAL_RCC_OscConfig+0x778>)
 80027f2:	f023 0301 	bic.w	r3, r3, #1
 80027f6:	f8c2 3098 	str.w	r3, [r2, #152]	@ 0x98

      /* Get Start Tick*/
      tickstart = HAL_GetTick();
 80027fa:	f7ff fa03 	bl	8001c04 <HAL_GetTick>
 80027fe:	6138      	str	r0, [r7, #16]

      /* Wait till HSI48 is disabled */
      while(READ_BIT(RCC->CRRCR, RCC_CRRCR_HSI48RDY) != 0U)
 8002800:	e008      	b.n	8002814 <HAL_RCC_OscConfig+0x618>
      {
        if((HAL_GetTick() - tickstart) > HSI48_TIMEOUT_VALUE)
 8002802:	f7ff f9ff 	bl	8001c04 <HAL_GetTick>
 8002806:	4602      	mov	r2, r0
 8002808:	693b      	ldr	r3, [r7, #16]
 800280a:	1ad3      	subs	r3, r2, r3
 800280c:	2b02      	cmp	r3, #2
 800280e:	d901      	bls.n	8002814 <HAL_RCC_OscConfig+0x618>
        {
          return HAL_TIMEOUT;
 8002810:	2303      	movs	r3, #3
 8002812:	e0ff      	b.n	8002a14 <HAL_RCC_OscConfig+0x818>
      while(READ_BIT(RCC->CRRCR, RCC_CRRCR_HSI48RDY) != 0U)
 8002814:	4b57      	ldr	r3, [pc, #348]	@ (8002974 <HAL_RCC_OscConfig+0x778>)
 8002816:	f8d3 3098 	ldr.w	r3, [r3, #152]	@ 0x98
 800281a:	f003 0302 	and.w	r3, r3, #2
 800281e:	2b00      	cmp	r3, #0
 8002820:	d1ef      	bne.n	8002802 <HAL_RCC_OscConfig+0x606>
#endif /* RCC_HSI48_SUPPORT */
  /*-------------------------------- PLL Configuration -----------------------*/
  /* Check the parameters */
  assert_param(IS_RCC_PLL(RCC_OscInitStruct->PLL.PLLState));

  if(RCC_OscInitStruct->PLL.PLLState != RCC_PLL_NONE)
 8002822:	687b      	ldr	r3, [r7, #4]
 8002824:	6a9b      	ldr	r3, [r3, #40]	@ 0x28
 8002826:	2b00      	cmp	r3, #0
 8002828:	f000 80f3 	beq.w	8002a12 <HAL_RCC_OscConfig+0x816>
  {
    /* PLL On ? */
    if(RCC_OscInitStruct->PLL.PLLState == RCC_PLL_ON)
 800282c:	687b      	ldr	r3, [r7, #4]
 800282e:	6a9b      	ldr	r3, [r3, #40]	@ 0x28
 8002830:	2b02      	cmp	r3, #2
 8002832:	f040 80c9 	bne.w	80029c8 <HAL_RCC_OscConfig+0x7cc>
#endif /* RCC_PLLP_SUPPORT */
      assert_param(IS_RCC_PLLQ_VALUE(RCC_OscInitStruct->PLL.PLLQ));
      assert_param(IS_RCC_PLLR_VALUE(RCC_OscInitStruct->PLL.PLLR));

      /* Do nothing if PLL configuration is the unchanged */
      pll_config = RCC->PLLCFGR;
 8002836:	4b4f      	ldr	r3, [pc, #316]	@ (8002974 <HAL_RCC_OscConfig+0x778>)
 8002838:	68db      	ldr	r3, [r3, #12]
 800283a:	617b      	str	r3, [r7, #20]
      if((READ_BIT(pll_config, RCC_PLLCFGR_PLLSRC)  != RCC_OscInitStruct->PLL.PLLSource) ||
 800283c:	697b      	ldr	r3, [r7, #20]
 800283e:	f003 0203 	and.w	r2, r3, #3
 8002842:	687b      	ldr	r3, [r7, #4]
 8002844:	6adb      	ldr	r3, [r3, #44]	@ 0x2c
 8002846:	429a      	cmp	r2, r3
 8002848:	d12c      	bne.n	80028a4 <HAL_RCC_OscConfig+0x6a8>
         (READ_BIT(pll_config, RCC_PLLCFGR_PLLM)    != ((RCC_OscInitStruct->PLL.PLLM - 1U) << RCC_PLLCFGR_PLLM_Pos)) ||
 800284a:	697b      	ldr	r3, [r7, #20]
 800284c:	f003 0270 	and.w	r2, r3, #112	@ 0x70
 8002850:	687b      	ldr	r3, [r7, #4]
 8002852:	6b1b      	ldr	r3, [r3, #48]	@ 0x30
 8002854:	3b01      	subs	r3, #1
 8002856:	011b      	lsls	r3, r3, #4
      if((READ_BIT(pll_config, RCC_PLLCFGR_PLLSRC)  != RCC_OscInitStruct->PLL.PLLSource) ||
 8002858:	429a      	cmp	r2, r3
 800285a:	d123      	bne.n	80028a4 <HAL_RCC_OscConfig+0x6a8>
         (READ_BIT(pll_config, RCC_PLLCFGR_PLLN)    != (RCC_OscInitStruct->PLL.PLLN << RCC_PLLCFGR_PLLN_Pos)) ||
 800285c:	697b      	ldr	r3, [r7, #20]
 800285e:	f403 42fe 	and.w	r2, r3, #32512	@ 0x7f00
 8002862:	687b      	ldr	r3, [r7, #4]
 8002864:	6b5b      	ldr	r3, [r3, #52]	@ 0x34
 8002866:	021b      	lsls	r3, r3, #8
         (READ_BIT(pll_config, RCC_PLLCFGR_PLLM)    != ((RCC_OscInitStruct->PLL.PLLM - 1U) << RCC_PLLCFGR_PLLM_Pos)) ||
 8002868:	429a      	cmp	r2, r3
 800286a:	d11b      	bne.n	80028a4 <HAL_RCC_OscConfig+0x6a8>
#if defined(RCC_PLLP_SUPPORT)
#if defined(RCC_PLLP_DIV_2_31_SUPPORT)
         (READ_BIT(pll_config, RCC_PLLCFGR_PLLPDIV) != (RCC_OscInitStruct->PLL.PLLP << RCC_PLLCFGR_PLLPDIV_Pos)) ||
 800286c:	697b      	ldr	r3, [r7, #20]
 800286e:	f003 4278 	and.w	r2, r3, #4160749568	@ 0xf8000000
 8002872:	687b      	ldr	r3, [r7, #4]
 8002874:	6b9b      	ldr	r3, [r3, #56]	@ 0x38
 8002876:	06db      	lsls	r3, r3, #27
         (READ_BIT(pll_config, RCC_PLLCFGR_PLLN)    != (RCC_OscInitStruct->PLL.PLLN << RCC_PLLCFGR_PLLN_Pos)) ||
 8002878:	429a      	cmp	r2, r3
 800287a:	d113      	bne.n	80028a4 <HAL_RCC_OscConfig+0x6a8>
#else
         (READ_BIT(pll_config, RCC_PLLCFGR_PLLP)    != ((RCC_OscInitStruct->PLL.PLLP == RCC_PLLP_DIV7) ? 0U : 1U)) ||
#endif
#endif
         (READ_BIT(pll_config, RCC_PLLCFGR_PLLQ)    != ((((RCC_OscInitStruct->PLL.PLLQ) >> 1U) - 1U) << RCC_PLLCFGR_PLLQ_Pos)) ||
 800287c:	697b      	ldr	r3, [r7, #20]
 800287e:	f403 02c0 	and.w	r2, r3, #6291456	@ 0x600000
 8002882:	687b      	ldr	r3, [r7, #4]
 8002884:	6bdb      	ldr	r3, [r3, #60]	@ 0x3c
 8002886:	085b      	lsrs	r3, r3, #1
 8002888:	3b01      	subs	r3, #1
 800288a:	055b      	lsls	r3, r3, #21
         (READ_BIT(pll_config, RCC_PLLCFGR_PLLPDIV) != (RCC_OscInitStruct->PLL.PLLP << RCC_PLLCFGR_PLLPDIV_Pos)) ||
 800288c:	429a      	cmp	r2, r3
 800288e:	d109      	bne.n	80028a4 <HAL_RCC_OscConfig+0x6a8>
         (READ_BIT(pll_config, RCC_PLLCFGR_PLLR)    != ((((RCC_OscInitStruct->PLL.PLLR) >> 1U) - 1U) << RCC_PLLCFGR_PLLR_Pos)))
 8002890:	697b      	ldr	r3, [r7, #20]
 8002892:	f003 62c0 	and.w	r2, r3, #100663296	@ 0x6000000
 8002896:	687b      	ldr	r3, [r7, #4]
 8002898:	6c1b      	ldr	r3, [r3, #64]	@ 0x40
 800289a:	085b      	lsrs	r3, r3, #1
 800289c:	3b01      	subs	r3, #1
 800289e:	065b      	lsls	r3, r3, #25
         (READ_BIT(pll_config, RCC_PLLCFGR_PLLQ)    != ((((RCC_OscInitStruct->PLL.PLLQ) >> 1U) - 1U) << RCC_PLLCFGR_PLLQ_Pos)) ||
 80028a0:	429a      	cmp	r2, r3
 80028a2:	d06b      	beq.n	800297c <HAL_RCC_OscConfig+0x780>
      {
        /* Check if the PLL is used as system clock or not */
        if(sysclk_source != RCC_CFGR_SWS_PLL)
 80028a4:	69bb      	ldr	r3, [r7, #24]
 80028a6:	2b0c      	cmp	r3, #12
 80028a8:	d062      	beq.n	8002970 <HAL_RCC_OscConfig+0x774>
        {
#if defined(RCC_PLLSAI1_SUPPORT) || defined(RCC_PLLSAI2_SUPPORT)
          /* Check if main PLL can be updated */
          /* Not possible if the source is shared by other enabled PLLSAIx */
          if((READ_BIT(RCC->CR, RCC_CR_PLLSAI1ON) != 0U)
 80028aa:	4b32      	ldr	r3, [pc, #200]	@ (8002974 <HAL_RCC_OscConfig+0x778>)
 80028ac:	681b      	ldr	r3, [r3, #0]
 80028ae:	f003 6380 	and.w	r3, r3, #67108864	@ 0x4000000
 80028b2:	2b00      	cmp	r3, #0
 80028b4:	d001      	beq.n	80028ba <HAL_RCC_OscConfig+0x6be>
#if defined(RCC_PLLSAI2_SUPPORT)
             || (READ_BIT(RCC->CR, RCC_CR_PLLSAI2ON) != 0U)
#endif
            )
          {
            return HAL_ERROR;
 80028b6:	2301      	movs	r3, #1
 80028b8:	e0ac      	b.n	8002a14 <HAL_RCC_OscConfig+0x818>
          }
          else
#endif /* RCC_PLLSAI1_SUPPORT || RCC_PLLSAI2_SUPPORT */
          {
            /* Disable the main PLL. */
            __HAL_RCC_PLL_DISABLE();
 80028ba:	4b2e      	ldr	r3, [pc, #184]	@ (8002974 <HAL_RCC_OscConfig+0x778>)
 80028bc:	681b      	ldr	r3, [r3, #0]
 80028be:	4a2d      	ldr	r2, [pc, #180]	@ (8002974 <HAL_RCC_OscConfig+0x778>)
 80028c0:	f023 7380 	bic.w	r3, r3, #16777216	@ 0x1000000
 80028c4:	6013      	str	r3, [r2, #0]

            /* Get Start Tick*/
            tickstart = HAL_GetTick();
 80028c6:	f7ff f99d 	bl	8001c04 <HAL_GetTick>
 80028ca:	6138      	str	r0, [r7, #16]

            /* Wait till PLL is ready */
            while(READ_BIT(RCC->CR, RCC_CR_PLLRDY) != 0U)
 80028cc:	e008      	b.n	80028e0 <HAL_RCC_OscConfig+0x6e4>
            {
              if((HAL_GetTick() - tickstart) > PLL_TIMEOUT_VALUE)
 80028ce:	f7ff f999 	bl	8001c04 <HAL_GetTick>
 80028d2:	4602      	mov	r2, r0
 80028d4:	693b      	ldr	r3, [r7, #16]
 80028d6:	1ad3      	subs	r3, r2, r3
 80028d8:	2b02      	cmp	r3, #2
 80028da:	d901      	bls.n	80028e0 <HAL_RCC_OscConfig+0x6e4>
              {
                return HAL_TIMEOUT;
 80028dc:	2303      	movs	r3, #3
 80028de:	e099      	b.n	8002a14 <HAL_RCC_OscConfig+0x818>
            while(READ_BIT(RCC->CR, RCC_CR_PLLRDY) != 0U)
 80028e0:	4b24      	ldr	r3, [pc, #144]	@ (8002974 <HAL_RCC_OscConfig+0x778>)
 80028e2:	681b      	ldr	r3, [r3, #0]
 80028e4:	f003 7300 	and.w	r3, r3, #33554432	@ 0x2000000
 80028e8:	2b00      	cmp	r3, #0
 80028ea:	d1f0      	bne.n	80028ce <HAL_RCC_OscConfig+0x6d2>
              }
            }

            /* Configure the main PLL clock source, multiplication and division factors. */
#if defined(RCC_PLLP_SUPPORT)
            __HAL_RCC_PLL_CONFIG(RCC_OscInitStruct->PLL.PLLSource,
 80028ec:	4b21      	ldr	r3, [pc, #132]	@ (8002974 <HAL_RCC_OscConfig+0x778>)
 80028ee:	68da      	ldr	r2, [r3, #12]
 80028f0:	4b21      	ldr	r3, [pc, #132]	@ (8002978 <HAL_RCC_OscConfig+0x77c>)
 80028f2:	4013      	ands	r3, r2
 80028f4:	687a      	ldr	r2, [r7, #4]
 80028f6:	6ad1      	ldr	r1, [r2, #44]	@ 0x2c
 80028f8:	687a      	ldr	r2, [r7, #4]
 80028fa:	6b12      	ldr	r2, [r2, #48]	@ 0x30
 80028fc:	3a01      	subs	r2, #1
 80028fe:	0112      	lsls	r2, r2, #4
 8002900:	4311      	orrs	r1, r2
 8002902:	687a      	ldr	r2, [r7, #4]
 8002904:	6b52      	ldr	r2, [r2, #52]	@ 0x34
 8002906:	0212      	lsls	r2, r2, #8
 8002908:	4311      	orrs	r1, r2
 800290a:	687a      	ldr	r2, [r7, #4]
 800290c:	6bd2      	ldr	r2, [r2, #60]	@ 0x3c
 800290e:	0852      	lsrs	r2, r2, #1
 8002910:	3a01      	subs	r2, #1
 8002912:	0552      	lsls	r2, r2, #21
 8002914:	4311      	orrs	r1, r2
 8002916:	687a      	ldr	r2, [r7, #4]
 8002918:	6c12      	ldr	r2, [r2, #64]	@ 0x40
 800291a:	0852      	lsrs	r2, r2, #1
 800291c:	3a01      	subs	r2, #1
 800291e:	0652      	lsls	r2, r2, #25
 8002920:	4311      	orrs	r1, r2
 8002922:	687a      	ldr	r2, [r7, #4]
 8002924:	6b92      	ldr	r2, [r2, #56]	@ 0x38
 8002926:	06d2      	lsls	r2, r2, #27
 8002928:	430a      	orrs	r2, r1
 800292a:	4912      	ldr	r1, [pc, #72]	@ (8002974 <HAL_RCC_OscConfig+0x778>)
 800292c:	4313      	orrs	r3, r2
 800292e:	60cb      	str	r3, [r1, #12]
                                 RCC_OscInitStruct->PLL.PLLQ,
                                 RCC_OscInitStruct->PLL.PLLR);
#endif

            /* Enable the main PLL. */
            __HAL_RCC_PLL_ENABLE();
 8002930:	4b10      	ldr	r3, [pc, #64]	@ (8002974 <HAL_RCC_OscConfig+0x778>)
 8002932:	681b      	ldr	r3, [r3, #0]
 8002934:	4a0f      	ldr	r2, [pc, #60]	@ (8002974 <HAL_RCC_OscConfig+0x778>)
 8002936:	f043 7380 	orr.w	r3, r3, #16777216	@ 0x1000000
 800293a:	6013      	str	r3, [r2, #0]

            /* Enable PLL System Clock output. */
            __HAL_RCC_PLLCLKOUT_ENABLE(RCC_PLL_SYSCLK);
 800293c:	4b0d      	ldr	r3, [pc, #52]	@ (8002974 <HAL_RCC_OscConfig+0x778>)
 800293e:	68db      	ldr	r3, [r3, #12]
 8002940:	4a0c      	ldr	r2, [pc, #48]	@ (8002974 <HAL_RCC_OscConfig+0x778>)
 8002942:	f043 7380 	orr.w	r3, r3, #16777216	@ 0x1000000
 8002946:	60d3      	str	r3, [r2, #12]

            /* Get Start Tick*/
            tickstart = HAL_GetTick();
 8002948:	f7ff f95c 	bl	8001c04 <HAL_GetTick>
 800294c:	6138      	str	r0, [r7, #16]

            /* Wait till PLL is ready */
            while(READ_BIT(RCC->CR, RCC_CR_PLLRDY) == 0U)
 800294e:	e008      	b.n	8002962 <HAL_RCC_OscConfig+0x766>
            {
              if((HAL_GetTick() - tickstart) > PLL_TIMEOUT_VALUE)
 8002950:	f7ff f958 	bl	8001c04 <HAL_GetTick>
 8002954:	4602      	mov	r2, r0
 8002956:	693b      	ldr	r3, [r7, #16]
 8002958:	1ad3      	subs	r3, r2, r3
 800295a:	2b02      	cmp	r3, #2
 800295c:	d901      	bls.n	8002962 <HAL_RCC_OscConfig+0x766>
              {
                return HAL_TIMEOUT;
 800295e:	2303      	movs	r3, #3
 8002960:	e058      	b.n	8002a14 <HAL_RCC_OscConfig+0x818>
            while(READ_BIT(RCC->CR, RCC_CR_PLLRDY) == 0U)
 8002962:	4b04      	ldr	r3, [pc, #16]	@ (8002974 <HAL_RCC_OscConfig+0x778>)
 8002964:	681b      	ldr	r3, [r3, #0]
 8002966:	f003 7300 	and.w	r3, r3, #33554432	@ 0x2000000
 800296a:	2b00      	cmp	r3, #0
 800296c:	d0f0      	beq.n	8002950 <HAL_RCC_OscConfig+0x754>
        if(sysclk_source != RCC_CFGR_SWS_PLL)
 800296e:	e050      	b.n	8002a12 <HAL_RCC_OscConfig+0x816>
          }
        }
        else
        {
          /* PLL is already used as System core clock */
          return HAL_ERROR;
 8002970:	2301      	movs	r3, #1
 8002972:	e04f      	b.n	8002a14 <HAL_RCC_OscConfig+0x818>
 8002974:	40021000 	.word	0x40021000
 8002978:	019d808c 	.word	0x019d808c
      }
      else
      {
        /* PLL configuration is unchanged */
        /* Re-enable PLL if it was disabled (ie. low power mode) */
        if(READ_BIT(RCC->CR, RCC_CR_PLLRDY) == 0U)
 800297c:	4b27      	ldr	r3, [pc, #156]	@ (8002a1c <HAL_RCC_OscConfig+0x820>)
 800297e:	681b      	ldr	r3, [r3, #0]
 8002980:	f003 7300 	and.w	r3, r3, #33554432	@ 0x2000000
 8002984:	2b00      	cmp	r3, #0
 8002986:	d144      	bne.n	8002a12 <HAL_RCC_OscConfig+0x816>
        {
          /* Enable the main PLL. */
          __HAL_RCC_PLL_ENABLE();
 8002988:	4b24      	ldr	r3, [pc, #144]	@ (8002a1c <HAL_RCC_OscConfig+0x820>)
 800298a:	681b      	ldr	r3, [r3, #0]
 800298c:	4a23      	ldr	r2, [pc, #140]	@ (8002a1c <HAL_RCC_OscConfig+0x820>)
 800298e:	f043 7380 	orr.w	r3, r3, #16777216	@ 0x1000000
 8002992:	6013      	str	r3, [r2, #0]

          /* Enable PLL System Clock output. */
          __HAL_RCC_PLLCLKOUT_ENABLE(RCC_PLL_SYSCLK);
 8002994:	4b21      	ldr	r3, [pc, #132]	@ (8002a1c <HAL_RCC_OscConfig+0x820>)
 8002996:	68db      	ldr	r3, [r3, #12]
 8002998:	4a20      	ldr	r2, [pc, #128]	@ (8002a1c <HAL_RCC_OscConfig+0x820>)
 800299a:	f043 7380 	orr.w	r3, r3, #16777216	@ 0x1000000
 800299e:	60d3      	str	r3, [r2, #12]

          /* Get Start Tick*/
          tickstart = HAL_GetTick();
 80029a0:	f7ff f930 	bl	8001c04 <HAL_GetTick>
 80029a4:	6138      	str	r0, [r7, #16]

          /* Wait till PLL is ready */
          while(READ_BIT(RCC->CR, RCC_CR_PLLRDY) == 0U)
 80029a6:	e008      	b.n	80029ba <HAL_RCC_OscConfig+0x7be>
          {
            if((HAL_GetTick() - tickstart) > PLL_TIMEOUT_VALUE)
 80029a8:	f7ff f92c 	bl	8001c04 <HAL_GetTick>
 80029ac:	4602      	mov	r2, r0
 80029ae:	693b      	ldr	r3, [r7, #16]
 80029b0:	1ad3      	subs	r3, r2, r3
 80029b2:	2b02      	cmp	r3, #2
 80029b4:	d901      	bls.n	80029ba <HAL_RCC_OscConfig+0x7be>
            {
              return HAL_TIMEOUT;
 80029b6:	2303      	movs	r3, #3
 80029b8:	e02c      	b.n	8002a14 <HAL_RCC_OscConfig+0x818>
          while(READ_BIT(RCC->CR, RCC_CR_PLLRDY) == 0U)
 80029ba:	4b18      	ldr	r3, [pc, #96]	@ (8002a1c <HAL_RCC_OscConfig+0x820>)
 80029bc:	681b      	ldr	r3, [r3, #0]
 80029be:	f003 7300 	and.w	r3, r3, #33554432	@ 0x2000000
 80029c2:	2b00      	cmp	r3, #0
 80029c4:	d0f0      	beq.n	80029a8 <HAL_RCC_OscConfig+0x7ac>
 80029c6:	e024      	b.n	8002a12 <HAL_RCC_OscConfig+0x816>
      }
    }
    else
    {
      /* Check that PLL is not used as system clock or not */
      if(sysclk_source != RCC_CFGR_SWS_PLL)
 80029c8:	69bb      	ldr	r3, [r7, #24]
 80029ca:	2b0c      	cmp	r3, #12
 80029cc:	d01f      	beq.n	8002a0e <HAL_RCC_OscConfig+0x812>
      {
        /* Disable the main PLL. */
        __HAL_RCC_PLL_DISABLE();
 80029ce:	4b13      	ldr	r3, [pc, #76]	@ (8002a1c <HAL_RCC_OscConfig+0x820>)
 80029d0:	681b      	ldr	r3, [r3, #0]
 80029d2:	4a12      	ldr	r2, [pc, #72]	@ (8002a1c <HAL_RCC_OscConfig+0x820>)
 80029d4:	f023 7380 	bic.w	r3, r3, #16777216	@ 0x1000000
 80029d8:	6013      	str	r3, [r2, #0]

        /* Get Start Tick*/
        tickstart = HAL_GetTick();
 80029da:	f7ff f913 	bl	8001c04 <HAL_GetTick>
 80029de:	6138      	str	r0, [r7, #16]

        /* Wait till PLL is disabled */
        while(READ_BIT(RCC->CR, RCC_CR_PLLRDY) != 0U)
 80029e0:	e008      	b.n	80029f4 <HAL_RCC_OscConfig+0x7f8>
        {
          if((HAL_GetTick() - tickstart) > PLL_TIMEOUT_VALUE)
 80029e2:	f7ff f90f 	bl	8001c04 <HAL_GetTick>
 80029e6:	4602      	mov	r2, r0
 80029e8:	693b      	ldr	r3, [r7, #16]
 80029ea:	1ad3      	subs	r3, r2, r3
 80029ec:	2b02      	cmp	r3, #2
 80029ee:	d901      	bls.n	80029f4 <HAL_RCC_OscConfig+0x7f8>
          {
            return HAL_TIMEOUT;
 80029f0:	2303      	movs	r3, #3
 80029f2:	e00f      	b.n	8002a14 <HAL_RCC_OscConfig+0x818>
        while(READ_BIT(RCC->CR, RCC_CR_PLLRDY) != 0U)
 80029f4:	4b09      	ldr	r3, [pc, #36]	@ (8002a1c <HAL_RCC_OscConfig+0x820>)
 80029f6:	681b      	ldr	r3, [r3, #0]
 80029f8:	f003 7300 	and.w	r3, r3, #33554432	@ 0x2000000
 80029fc:	2b00      	cmp	r3, #0
 80029fe:	d1f0      	bne.n	80029e2 <HAL_RCC_OscConfig+0x7e6>
        }
        /* Unselect main PLL clock source and disable main PLL outputs to save power */
#if defined(RCC_PLLSAI2_SUPPORT)
        RCC->PLLCFGR &= ~(RCC_PLLCFGR_PLLSRC | RCC_PLL_SYSCLK | RCC_PLL_48M1CLK | RCC_PLL_SAI3CLK);
#elif defined(RCC_PLLSAI1_SUPPORT)
        RCC->PLLCFGR &= ~(RCC_PLLCFGR_PLLSRC | RCC_PLL_SYSCLK | RCC_PLL_48M1CLK | RCC_PLL_SAI2CLK);
 8002a00:	4b06      	ldr	r3, [pc, #24]	@ (8002a1c <HAL_RCC_OscConfig+0x820>)
 8002a02:	68da      	ldr	r2, [r3, #12]
 8002a04:	4905      	ldr	r1, [pc, #20]	@ (8002a1c <HAL_RCC_OscConfig+0x820>)
 8002a06:	4b06      	ldr	r3, [pc, #24]	@ (8002a20 <HAL_RCC_OscConfig+0x824>)
 8002a08:	4013      	ands	r3, r2
 8002a0a:	60cb      	str	r3, [r1, #12]
 8002a0c:	e001      	b.n	8002a12 <HAL_RCC_OscConfig+0x816>
#endif /* RCC_PLLSAI2_SUPPORT */
      }
      else
      {
        /* PLL is already used as System core clock */
        return HAL_ERROR;
 8002a0e:	2301      	movs	r3, #1
 8002a10:	e000      	b.n	8002a14 <HAL_RCC_OscConfig+0x818>
      }
    }
  }
  return HAL_OK;
 8002a12:	2300      	movs	r3, #0
}
 8002a14:	4618      	mov	r0, r3
 8002a16:	3720      	adds	r7, #32
 8002a18:	46bd      	mov	sp, r7
 8002a1a:	bd80      	pop	{r7, pc}
 8002a1c:	40021000 	.word	0x40021000
 8002a20:	feeefffc 	.word	0xfeeefffc

08002a24 <HAL_RCC_ClockConfig>:
  *         HPRE[3:0] bits to ensure that HCLK not exceed the maximum allowed frequency
  *         (for more details refer to section above "Initialization/de-initialization functions")
  * @retval None
  */
HAL_StatusTypeDef HAL_RCC_ClockConfig(RCC_ClkInitTypeDef  *RCC_ClkInitStruct, uint32_t FLatency)
{
 8002a24:	b580      	push	{r7, lr}
 8002a26:	b084      	sub	sp, #16
 8002a28:	af00      	add	r7, sp, #0
 8002a2a:	6078      	str	r0, [r7, #4]
 8002a2c:	6039      	str	r1, [r7, #0]
  uint32_t hpre = RCC_SYSCLK_DIV1;
#endif
  HAL_StatusTypeDef status;

  /* Check Null pointer */
  if(RCC_ClkInitStruct == NULL)
 8002a2e:	687b      	ldr	r3, [r7, #4]
 8002a30:	2b00      	cmp	r3, #0
 8002a32:	d101      	bne.n	8002a38 <HAL_RCC_ClockConfig+0x14>
  {
    return HAL_ERROR;
 8002a34:	2301      	movs	r3, #1
 8002a36:	e0e7      	b.n	8002c08 <HAL_RCC_ClockConfig+0x1e4>
  /* To correctly read data from FLASH memory, the number of wait states (LATENCY)
    must be correctly programmed according to the frequency of the CPU clock
    (HCLK) and the supply voltage of the device. */

  /* Increasing the number of wait states because of higher CPU frequency */
  if(FLatency > __HAL_FLASH_GET_LATENCY())
 8002a38:	4b75      	ldr	r3, [pc, #468]	@ (8002c10 <HAL_RCC_ClockConfig+0x1ec>)
 8002a3a:	681b      	ldr	r3, [r3, #0]
 8002a3c:	f003 0307 	and.w	r3, r3, #7
 8002a40:	683a      	ldr	r2, [r7, #0]
 8002a42:	429a      	cmp	r2, r3
 8002a44:	d910      	bls.n	8002a68 <HAL_RCC_ClockConfig+0x44>
  {
    /* Program the new number of wait states to the LATENCY bits in the FLASH_ACR register */
    __HAL_FLASH_SET_LATENCY(FLatency);
 8002a46:	4b72      	ldr	r3, [pc, #456]	@ (8002c10 <HAL_RCC_ClockConfig+0x1ec>)
 8002a48:	681b      	ldr	r3, [r3, #0]
 8002a4a:	f023 0207 	bic.w	r2, r3, #7
 8002a4e:	4970      	ldr	r1, [pc, #448]	@ (8002c10 <HAL_RCC_ClockConfig+0x1ec>)
 8002a50:	683b      	ldr	r3, [r7, #0]
 8002a52:	4313      	orrs	r3, r2
 8002a54:	600b      	str	r3, [r1, #0]

    /* Check that the new number of wait states is taken into account to access the Flash
    memory by reading the FLASH_ACR register */
    if(__HAL_FLASH_GET_LATENCY() != FLatency)
 8002a56:	4b6e      	ldr	r3, [pc, #440]	@ (8002c10 <HAL_RCC_ClockConfig+0x1ec>)
 8002a58:	681b      	ldr	r3, [r3, #0]
 8002a5a:	f003 0307 	and.w	r3, r3, #7
 8002a5e:	683a      	ldr	r2, [r7, #0]
 8002a60:	429a      	cmp	r2, r3
 8002a62:	d001      	beq.n	8002a68 <HAL_RCC_ClockConfig+0x44>
    {
      return HAL_ERROR;
 8002a64:	2301      	movs	r3, #1
 8002a66:	e0cf      	b.n	8002c08 <HAL_RCC_ClockConfig+0x1e4>
    }
  }

  /*----------------- HCLK Configuration prior to SYSCLK----------------------*/
  /* Apply higher HCLK prescaler request here to ensure CPU clock is not of of spec when SYSCLK is increased */
  if(((RCC_ClkInitStruct->ClockType) & RCC_CLOCKTYPE_HCLK) == RCC_CLOCKTYPE_HCLK)
 8002a68:	687b      	ldr	r3, [r7, #4]
 8002a6a:	681b      	ldr	r3, [r3, #0]
 8002a6c:	f003 0302 	and.w	r3, r3, #2
 8002a70:	2b00      	cmp	r3, #0
 8002a72:	d010      	beq.n	8002a96 <HAL_RCC_ClockConfig+0x72>
  {
    assert_param(IS_RCC_HCLK(RCC_ClkInitStruct->AHBCLKDivider));

    if(RCC_ClkInitStruct->AHBCLKDivider > READ_BIT(RCC->CFGR, RCC_CFGR_HPRE))
 8002a74:	687b      	ldr	r3, [r7, #4]
 8002a76:	689a      	ldr	r2, [r3, #8]
 8002a78:	4b66      	ldr	r3, [pc, #408]	@ (8002c14 <HAL_RCC_ClockConfig+0x1f0>)
 8002a7a:	689b      	ldr	r3, [r3, #8]
 8002a7c:	f003 03f0 	and.w	r3, r3, #240	@ 0xf0
 8002a80:	429a      	cmp	r2, r3
 8002a82:	d908      	bls.n	8002a96 <HAL_RCC_ClockConfig+0x72>
    {
      MODIFY_REG(RCC->CFGR, RCC_CFGR_HPRE, RCC_ClkInitStruct->AHBCLKDivider);
 8002a84:	4b63      	ldr	r3, [pc, #396]	@ (8002c14 <HAL_RCC_ClockConfig+0x1f0>)
 8002a86:	689b      	ldr	r3, [r3, #8]
 8002a88:	f023 02f0 	bic.w	r2, r3, #240	@ 0xf0
 8002a8c:	687b      	ldr	r3, [r7, #4]
 8002a8e:	689b      	ldr	r3, [r3, #8]
 8002a90:	4960      	ldr	r1, [pc, #384]	@ (8002c14 <HAL_RCC_ClockConfig+0x1f0>)
 8002a92:	4313      	orrs	r3, r2
 8002a94:	608b      	str	r3, [r1, #8]
    }
  }

  /*------------------------- SYSCLK Configuration ---------------------------*/
  if(((RCC_ClkInitStruct->ClockType) & RCC_CLOCKTYPE_SYSCLK) == RCC_CLOCKTYPE_SYSCLK)
 8002a96:	687b      	ldr	r3, [r7, #4]
 8002a98:	681b      	ldr	r3, [r3, #0]
 8002a9a:	f003 0301 	and.w	r3, r3, #1
 8002a9e:	2b00      	cmp	r3, #0
 8002aa0:	d04c      	beq.n	8002b3c <HAL_RCC_ClockConfig+0x118>
  {
    assert_param(IS_RCC_SYSCLKSOURCE(RCC_ClkInitStruct->SYSCLKSource));

    /* PLL is selected as System Clock Source */
    if(RCC_ClkInitStruct->SYSCLKSource == RCC_SYSCLKSOURCE_PLLCLK)
 8002aa2:	687b      	ldr	r3, [r7, #4]
 8002aa4:	685b      	ldr	r3, [r3, #4]
 8002aa6:	2b03      	cmp	r3, #3
 8002aa8:	d107      	bne.n	8002aba <HAL_RCC_ClockConfig+0x96>
    {
      /* Check the PLL ready flag */
      if(READ_BIT(RCC->CR, RCC_CR_PLLRDY) == 0U)
 8002aaa:	4b5a      	ldr	r3, [pc, #360]	@ (8002c14 <HAL_RCC_ClockConfig+0x1f0>)
 8002aac:	681b      	ldr	r3, [r3, #0]
 8002aae:	f003 7300 	and.w	r3, r3, #33554432	@ 0x2000000
 8002ab2:	2b00      	cmp	r3, #0
 8002ab4:	d121      	bne.n	8002afa <HAL_RCC_ClockConfig+0xd6>
      {
        return HAL_ERROR;
 8002ab6:	2301      	movs	r3, #1
 8002ab8:	e0a6      	b.n	8002c08 <HAL_RCC_ClockConfig+0x1e4>
#endif
    }
    else
    {
      /* HSE is selected as System Clock Source */
      if(RCC_ClkInitStruct->SYSCLKSource == RCC_SYSCLKSOURCE_HSE)
 8002aba:	687b      	ldr	r3, [r7, #4]
 8002abc:	685b      	ldr	r3, [r3, #4]
 8002abe:	2b02      	cmp	r3, #2
 8002ac0:	d107      	bne.n	8002ad2 <HAL_RCC_ClockConfig+0xae>
      {
        /* Check the HSE ready flag */
        if(READ_BIT(RCC->CR, RCC_CR_HSERDY) == 0U)
 8002ac2:	4b54      	ldr	r3, [pc, #336]	@ (8002c14 <HAL_RCC_ClockConfig+0x1f0>)
 8002ac4:	681b      	ldr	r3, [r3, #0]
 8002ac6:	f403 3300 	and.w	r3, r3, #131072	@ 0x20000
 8002aca:	2b00      	cmp	r3, #0
 8002acc:	d115      	bne.n	8002afa <HAL_RCC_ClockConfig+0xd6>
        {
          return HAL_ERROR;
 8002ace:	2301      	movs	r3, #1
 8002ad0:	e09a      	b.n	8002c08 <HAL_RCC_ClockConfig+0x1e4>
        }
      }
      /* MSI is selected as System Clock Source */
      else if(RCC_ClkInitStruct->SYSCLKSource == RCC_SYSCLKSOURCE_MSI)
 8002ad2:	687b      	ldr	r3, [r7, #4]
 8002ad4:	685b      	ldr	r3, [r3, #4]
 8002ad6:	2b00      	cmp	r3, #0
 8002ad8:	d107      	bne.n	8002aea <HAL_RCC_ClockConfig+0xc6>
      {
        /* Check the MSI ready flag */
        if(READ_BIT(RCC->CR, RCC_CR_MSIRDY) == 0U)
 8002ada:	4b4e      	ldr	r3, [pc, #312]	@ (8002c14 <HAL_RCC_ClockConfig+0x1f0>)
 8002adc:	681b      	ldr	r3, [r3, #0]
 8002ade:	f003 0302 	and.w	r3, r3, #2
 8002ae2:	2b00      	cmp	r3, #0
 8002ae4:	d109      	bne.n	8002afa <HAL_RCC_ClockConfig+0xd6>
        {
          return HAL_ERROR;
 8002ae6:	2301      	movs	r3, #1
 8002ae8:	e08e      	b.n	8002c08 <HAL_RCC_ClockConfig+0x1e4>
      }
      /* HSI is selected as System Clock Source */
      else
      {
        /* Check the HSI ready flag */
        if(READ_BIT(RCC->CR, RCC_CR_HSIRDY) == 0U)
 8002aea:	4b4a      	ldr	r3, [pc, #296]	@ (8002c14 <HAL_RCC_ClockConfig+0x1f0>)
 8002aec:	681b      	ldr	r3, [r3, #0]
 8002aee:	f403 6380 	and.w	r3, r3, #1024	@ 0x400
 8002af2:	2b00      	cmp	r3, #0
 8002af4:	d101      	bne.n	8002afa <HAL_RCC_ClockConfig+0xd6>
        {
          return HAL_ERROR;
 8002af6:	2301      	movs	r3, #1
 8002af8:	e086      	b.n	8002c08 <HAL_RCC_ClockConfig+0x1e4>
      }
#endif

    }

    MODIFY_REG(RCC->CFGR, RCC_CFGR_SW, RCC_ClkInitStruct->SYSCLKSource);
 8002afa:	4b46      	ldr	r3, [pc, #280]	@ (8002c14 <HAL_RCC_ClockConfig+0x1f0>)
 8002afc:	689b      	ldr	r3, [r3, #8]
 8002afe:	f023 0203 	bic.w	r2, r3, #3
 8002b02:	687b      	ldr	r3, [r7, #4]
 8002b04:	685b      	ldr	r3, [r3, #4]
 8002b06:	4943      	ldr	r1, [pc, #268]	@ (8002c14 <HAL_RCC_ClockConfig+0x1f0>)
 8002b08:	4313      	orrs	r3, r2
 8002b0a:	608b      	str	r3, [r1, #8]

    /* Get Start Tick*/
    tickstart = HAL_GetTick();
 8002b0c:	f7ff f87a 	bl	8001c04 <HAL_GetTick>
 8002b10:	60f8      	str	r0, [r7, #12]

    while(__HAL_RCC_GET_SYSCLK_SOURCE() != (RCC_ClkInitStruct->SYSCLKSource << RCC_CFGR_SWS_Pos))
 8002b12:	e00a      	b.n	8002b2a <HAL_RCC_ClockConfig+0x106>
    {
      if((HAL_GetTick() - tickstart) > CLOCKSWITCH_TIMEOUT_VALUE)
 8002b14:	f7ff f876 	bl	8001c04 <HAL_GetTick>
 8002b18:	4602      	mov	r2, r0
 8002b1a:	68fb      	ldr	r3, [r7, #12]
 8002b1c:	1ad3      	subs	r3, r2, r3
 8002b1e:	f241 3288 	movw	r2, #5000	@ 0x1388
 8002b22:	4293      	cmp	r3, r2
 8002b24:	d901      	bls.n	8002b2a <HAL_RCC_ClockConfig+0x106>
      {
        return HAL_TIMEOUT;
 8002b26:	2303      	movs	r3, #3
 8002b28:	e06e      	b.n	8002c08 <HAL_RCC_ClockConfig+0x1e4>
    while(__HAL_RCC_GET_SYSCLK_SOURCE() != (RCC_ClkInitStruct->SYSCLKSource << RCC_CFGR_SWS_Pos))
 8002b2a:	4b3a      	ldr	r3, [pc, #232]	@ (8002c14 <HAL_RCC_ClockConfig+0x1f0>)
 8002b2c:	689b      	ldr	r3, [r3, #8]
 8002b2e:	f003 020c 	and.w	r2, r3, #12
 8002b32:	687b      	ldr	r3, [r7, #4]
 8002b34:	685b      	ldr	r3, [r3, #4]
 8002b36:	009b      	lsls	r3, r3, #2
 8002b38:	429a      	cmp	r2, r3
 8002b3a:	d1eb      	bne.n	8002b14 <HAL_RCC_ClockConfig+0xf0>
  }
#endif

  /*----------------- HCLK Configuration after SYSCLK-------------------------*/
  /* Apply lower HCLK prescaler request here to ensure CPU clock is not of of spec when SYSCLK is set */
  if(((RCC_ClkInitStruct->ClockType) & RCC_CLOCKTYPE_HCLK) == RCC_CLOCKTYPE_HCLK)
 8002b3c:	687b      	ldr	r3, [r7, #4]
 8002b3e:	681b      	ldr	r3, [r3, #0]
 8002b40:	f003 0302 	and.w	r3, r3, #2
 8002b44:	2b00      	cmp	r3, #0
 8002b46:	d010      	beq.n	8002b6a <HAL_RCC_ClockConfig+0x146>
  {
    if(RCC_ClkInitStruct->AHBCLKDivider < READ_BIT(RCC->CFGR, RCC_CFGR_HPRE))
 8002b48:	687b      	ldr	r3, [r7, #4]
 8002b4a:	689a      	ldr	r2, [r3, #8]
 8002b4c:	4b31      	ldr	r3, [pc, #196]	@ (8002c14 <HAL_RCC_ClockConfig+0x1f0>)
 8002b4e:	689b      	ldr	r3, [r3, #8]
 8002b50:	f003 03f0 	and.w	r3, r3, #240	@ 0xf0
 8002b54:	429a      	cmp	r2, r3
 8002b56:	d208      	bcs.n	8002b6a <HAL_RCC_ClockConfig+0x146>
    {
      MODIFY_REG(RCC->CFGR, RCC_CFGR_HPRE, RCC_ClkInitStruct->AHBCLKDivider);
 8002b58:	4b2e      	ldr	r3, [pc, #184]	@ (8002c14 <HAL_RCC_ClockConfig+0x1f0>)
 8002b5a:	689b      	ldr	r3, [r3, #8]
 8002b5c:	f023 02f0 	bic.w	r2, r3, #240	@ 0xf0
 8002b60:	687b      	ldr	r3, [r7, #4]
 8002b62:	689b      	ldr	r3, [r3, #8]
 8002b64:	492b      	ldr	r1, [pc, #172]	@ (8002c14 <HAL_RCC_ClockConfig+0x1f0>)
 8002b66:	4313      	orrs	r3, r2
 8002b68:	608b      	str	r3, [r1, #8]
    }
  }

  /* Allow decreasing of the number of wait states (because of lower CPU frequency expected) */
  if(FLatency < __HAL_FLASH_GET_LATENCY())
 8002b6a:	4b29      	ldr	r3, [pc, #164]	@ (8002c10 <HAL_RCC_ClockConfig+0x1ec>)
 8002b6c:	681b      	ldr	r3, [r3, #0]
 8002b6e:	f003 0307 	and.w	r3, r3, #7
 8002b72:	683a      	ldr	r2, [r7, #0]
 8002b74:	429a      	cmp	r2, r3
 8002b76:	d210      	bcs.n	8002b9a <HAL_RCC_ClockConfig+0x176>
  {
    /* Program the new number of wait states to the LATENCY bits in the FLASH_ACR register */
    __HAL_FLASH_SET_LATENCY(FLatency);
 8002b78:	4b25      	ldr	r3, [pc, #148]	@ (8002c10 <HAL_RCC_ClockConfig+0x1ec>)
 8002b7a:	681b      	ldr	r3, [r3, #0]
 8002b7c:	f023 0207 	bic.w	r2, r3, #7
 8002b80:	4923      	ldr	r1, [pc, #140]	@ (8002c10 <HAL_RCC_ClockConfig+0x1ec>)
 8002b82:	683b      	ldr	r3, [r7, #0]
 8002b84:	4313      	orrs	r3, r2
 8002b86:	600b      	str	r3, [r1, #0]

    /* Check that the new number of wait states is taken into account to access the Flash
    memory by reading the FLASH_ACR register */
    if(__HAL_FLASH_GET_LATENCY() != FLatency)
 8002b88:	4b21      	ldr	r3, [pc, #132]	@ (8002c10 <HAL_RCC_ClockConfig+0x1ec>)
 8002b8a:	681b      	ldr	r3, [r3, #0]
 8002b8c:	f003 0307 	and.w	r3, r3, #7
 8002b90:	683a      	ldr	r2, [r7, #0]
 8002b92:	429a      	cmp	r2, r3
 8002b94:	d001      	beq.n	8002b9a <HAL_RCC_ClockConfig+0x176>
    {
      return HAL_ERROR;
 8002b96:	2301      	movs	r3, #1
 8002b98:	e036      	b.n	8002c08 <HAL_RCC_ClockConfig+0x1e4>
    }
  }

  /*-------------------------- PCLK1 Configuration ---------------------------*/
  if(((RCC_ClkInitStruct->ClockType) & RCC_CLOCKTYPE_PCLK1) == RCC_CLOCKTYPE_PCLK1)
 8002b9a:	687b      	ldr	r3, [r7, #4]
 8002b9c:	681b      	ldr	r3, [r3, #0]
 8002b9e:	f003 0304 	and.w	r3, r3, #4
 8002ba2:	2b00      	cmp	r3, #0
 8002ba4:	d008      	beq.n	8002bb8 <HAL_RCC_ClockConfig+0x194>
  {
    assert_param(IS_RCC_PCLK(RCC_ClkInitStruct->APB1CLKDivider));
    MODIFY_REG(RCC->CFGR, RCC_CFGR_PPRE1, RCC_ClkInitStruct->APB1CLKDivider);
 8002ba6:	4b1b      	ldr	r3, [pc, #108]	@ (8002c14 <HAL_RCC_ClockConfig+0x1f0>)
 8002ba8:	689b      	ldr	r3, [r3, #8]
 8002baa:	f423 62e0 	bic.w	r2, r3, #1792	@ 0x700
 8002bae:	687b      	ldr	r3, [r7, #4]
 8002bb0:	68db      	ldr	r3, [r3, #12]
 8002bb2:	4918      	ldr	r1, [pc, #96]	@ (8002c14 <HAL_RCC_ClockConfig+0x1f0>)
 8002bb4:	4313      	orrs	r3, r2
 8002bb6:	608b      	str	r3, [r1, #8]
  }

  /*-------------------------- PCLK2 Configuration ---------------------------*/
  if(((RCC_ClkInitStruct->ClockType) & RCC_CLOCKTYPE_PCLK2) == RCC_CLOCKTYPE_PCLK2)
 8002bb8:	687b      	ldr	r3, [r7, #4]
 8002bba:	681b      	ldr	r3, [r3, #0]
 8002bbc:	f003 0308 	and.w	r3, r3, #8
 8002bc0:	2b00      	cmp	r3, #0
 8002bc2:	d009      	beq.n	8002bd8 <HAL_RCC_ClockConfig+0x1b4>
  {
    assert_param(IS_RCC_PCLK(RCC_ClkInitStruct->APB2CLKDivider));
    MODIFY_REG(RCC->CFGR, RCC_CFGR_PPRE2, ((RCC_ClkInitStruct->APB2CLKDivider) << 3U));
 8002bc4:	4b13      	ldr	r3, [pc, #76]	@ (8002c14 <HAL_RCC_ClockConfig+0x1f0>)
 8002bc6:	689b      	ldr	r3, [r3, #8]
 8002bc8:	f423 5260 	bic.w	r2, r3, #14336	@ 0x3800
 8002bcc:	687b      	ldr	r3, [r7, #4]
 8002bce:	691b      	ldr	r3, [r3, #16]
 8002bd0:	00db      	lsls	r3, r3, #3
 8002bd2:	4910      	ldr	r1, [pc, #64]	@ (8002c14 <HAL_RCC_ClockConfig+0x1f0>)
 8002bd4:	4313      	orrs	r3, r2
 8002bd6:	608b      	str	r3, [r1, #8]
  }

  /* Update the SystemCoreClock global variable */
  SystemCoreClock = HAL_RCC_GetSysClockFreq() >> (AHBPrescTable[READ_BIT(RCC->CFGR, RCC_CFGR_HPRE) >> RCC_CFGR_HPRE_Pos] & 0x1FU);
 8002bd8:	f000 f824 	bl	8002c24 <HAL_RCC_GetSysClockFreq>
 8002bdc:	4602      	mov	r2, r0
 8002bde:	4b0d      	ldr	r3, [pc, #52]	@ (8002c14 <HAL_RCC_ClockConfig+0x1f0>)
 8002be0:	689b      	ldr	r3, [r3, #8]
 8002be2:	091b      	lsrs	r3, r3, #4
 8002be4:	f003 030f 	and.w	r3, r3, #15
 8002be8:	490b      	ldr	r1, [pc, #44]	@ (8002c18 <HAL_RCC_ClockConfig+0x1f4>)
 8002bea:	5ccb      	ldrb	r3, [r1, r3]
 8002bec:	f003 031f 	and.w	r3, r3, #31
 8002bf0:	fa22 f303 	lsr.w	r3, r2, r3
 8002bf4:	4a09      	ldr	r2, [pc, #36]	@ (8002c1c <HAL_RCC_ClockConfig+0x1f8>)
 8002bf6:	6013      	str	r3, [r2, #0]

  /* Configure the source of time base considering new system clocks settings*/
  status = HAL_InitTick(uwTickPrio);
 8002bf8:	4b09      	ldr	r3, [pc, #36]	@ (8002c20 <HAL_RCC_ClockConfig+0x1fc>)
 8002bfa:	681b      	ldr	r3, [r3, #0]
 8002bfc:	4618      	mov	r0, r3
 8002bfe:	f7fe ffb1 	bl	8001b64 <HAL_InitTick>
 8002c02:	4603      	mov	r3, r0
 8002c04:	72fb      	strb	r3, [r7, #11]

  return status;
 8002c06:	7afb      	ldrb	r3, [r7, #11]
}
 8002c08:	4618      	mov	r0, r3
 8002c0a:	3710      	adds	r7, #16
 8002c0c:	46bd      	mov	sp, r7
 8002c0e:	bd80      	pop	{r7, pc}
 8002c10:	40022000 	.word	0x40022000
 8002c14:	40021000 	.word	0x40021000
 8002c18:	080044a4 	.word	0x080044a4
 8002c1c:	2000c8a0 	.word	0x2000c8a0
 8002c20:	2000c8a4 	.word	0x2000c8a4

08002c24 <HAL_RCC_GetSysClockFreq>:
  *
  *
  * @retval SYSCLK frequency
  */
uint32_t HAL_RCC_GetSysClockFreq(void)
{
 8002c24:	b480      	push	{r7}
 8002c26:	b089      	sub	sp, #36	@ 0x24
 8002c28:	af00      	add	r7, sp, #0
  uint32_t msirange = 0U, sysclockfreq = 0U;
 8002c2a:	2300      	movs	r3, #0
 8002c2c:	61fb      	str	r3, [r7, #28]
 8002c2e:	2300      	movs	r3, #0
 8002c30:	61bb      	str	r3, [r7, #24]
  uint32_t pllvco, pllsource, pllr, pllm;    /* no init needed */
  uint32_t sysclk_source, pll_oscsource;

  sysclk_source = __HAL_RCC_GET_SYSCLK_SOURCE();
 8002c32:	4b3e      	ldr	r3, [pc, #248]	@ (8002d2c <HAL_RCC_GetSysClockFreq+0x108>)
 8002c34:	689b      	ldr	r3, [r3, #8]
 8002c36:	f003 030c 	and.w	r3, r3, #12
 8002c3a:	613b      	str	r3, [r7, #16]
  pll_oscsource = __HAL_RCC_GET_PLL_OSCSOURCE();
 8002c3c:	4b3b      	ldr	r3, [pc, #236]	@ (8002d2c <HAL_RCC_GetSysClockFreq+0x108>)
 8002c3e:	68db      	ldr	r3, [r3, #12]
 8002c40:	f003 0303 	and.w	r3, r3, #3
 8002c44:	60fb      	str	r3, [r7, #12]

  if((sysclk_source == RCC_CFGR_SWS_MSI) ||
 8002c46:	693b      	ldr	r3, [r7, #16]
 8002c48:	2b00      	cmp	r3, #0
 8002c4a:	d005      	beq.n	8002c58 <HAL_RCC_GetSysClockFreq+0x34>
 8002c4c:	693b      	ldr	r3, [r7, #16]
 8002c4e:	2b0c      	cmp	r3, #12
 8002c50:	d121      	bne.n	8002c96 <HAL_RCC_GetSysClockFreq+0x72>
     ((sysclk_source == RCC_CFGR_SWS_PLL) && (pll_oscsource == RCC_PLLSOURCE_MSI)))
 8002c52:	68fb      	ldr	r3, [r7, #12]
 8002c54:	2b01      	cmp	r3, #1
 8002c56:	d11e      	bne.n	8002c96 <HAL_RCC_GetSysClockFreq+0x72>
  {
    /* MSI or PLL with MSI source used as system clock source */

    /* Get SYSCLK source */
    if(READ_BIT(RCC->CR, RCC_CR_MSIRGSEL) == 0U)
 8002c58:	4b34      	ldr	r3, [pc, #208]	@ (8002d2c <HAL_RCC_GetSysClockFreq+0x108>)
 8002c5a:	681b      	ldr	r3, [r3, #0]
 8002c5c:	f003 0308 	and.w	r3, r3, #8
 8002c60:	2b00      	cmp	r3, #0
 8002c62:	d107      	bne.n	8002c74 <HAL_RCC_GetSysClockFreq+0x50>
    { /* MSISRANGE from RCC_CSR applies */
      msirange = READ_BIT(RCC->CSR, RCC_CSR_MSISRANGE) >> RCC_CSR_MSISRANGE_Pos;
 8002c64:	4b31      	ldr	r3, [pc, #196]	@ (8002d2c <HAL_RCC_GetSysClockFreq+0x108>)
 8002c66:	f8d3 3094 	ldr.w	r3, [r3, #148]	@ 0x94
 8002c6a:	0a1b      	lsrs	r3, r3, #8
 8002c6c:	f003 030f 	and.w	r3, r3, #15
 8002c70:	61fb      	str	r3, [r7, #28]
 8002c72:	e005      	b.n	8002c80 <HAL_RCC_GetSysClockFreq+0x5c>
    }
    else
    { /* MSIRANGE from RCC_CR applies */
      msirange = READ_BIT(RCC->CR, RCC_CR_MSIRANGE) >> RCC_CR_MSIRANGE_Pos;
 8002c74:	4b2d      	ldr	r3, [pc, #180]	@ (8002d2c <HAL_RCC_GetSysClockFreq+0x108>)
 8002c76:	681b      	ldr	r3, [r3, #0]
 8002c78:	091b      	lsrs	r3, r3, #4
 8002c7a:	f003 030f 	and.w	r3, r3, #15
 8002c7e:	61fb      	str	r3, [r7, #28]
    }
    /*MSI frequency range in HZ*/
    msirange = MSIRangeTable[msirange];
 8002c80:	4a2b      	ldr	r2, [pc, #172]	@ (8002d30 <HAL_RCC_GetSysClockFreq+0x10c>)
 8002c82:	69fb      	ldr	r3, [r7, #28]
 8002c84:	f852 3023 	ldr.w	r3, [r2, r3, lsl #2]
 8002c88:	61fb      	str	r3, [r7, #28]

    if(sysclk_source == RCC_CFGR_SWS_MSI)
 8002c8a:	693b      	ldr	r3, [r7, #16]
 8002c8c:	2b00      	cmp	r3, #0
 8002c8e:	d10d      	bne.n	8002cac <HAL_RCC_GetSysClockFreq+0x88>
    {
      /* MSI used as system clock source */
      sysclockfreq = msirange;
 8002c90:	69fb      	ldr	r3, [r7, #28]
 8002c92:	61bb      	str	r3, [r7, #24]
    if(sysclk_source == RCC_CFGR_SWS_MSI)
 8002c94:	e00a      	b.n	8002cac <HAL_RCC_GetSysClockFreq+0x88>
    }
  }
  else if(sysclk_source == RCC_CFGR_SWS_HSI)
 8002c96:	693b      	ldr	r3, [r7, #16]
 8002c98:	2b04      	cmp	r3, #4
 8002c9a:	d102      	bne.n	8002ca2 <HAL_RCC_GetSysClockFreq+0x7e>
  {
    /* HSI used as system clock source */
    sysclockfreq = HSI_VALUE;
 8002c9c:	4b25      	ldr	r3, [pc, #148]	@ (8002d34 <HAL_RCC_GetSysClockFreq+0x110>)
 8002c9e:	61bb      	str	r3, [r7, #24]
 8002ca0:	e004      	b.n	8002cac <HAL_RCC_GetSysClockFreq+0x88>
  }
  else if(sysclk_source == RCC_CFGR_SWS_HSE)
 8002ca2:	693b      	ldr	r3, [r7, #16]
 8002ca4:	2b08      	cmp	r3, #8
 8002ca6:	d101      	bne.n	8002cac <HAL_RCC_GetSysClockFreq+0x88>
  {
    /* HSE used as system clock source */
    sysclockfreq = HSE_VALUE;
 8002ca8:	4b23      	ldr	r3, [pc, #140]	@ (8002d38 <HAL_RCC_GetSysClockFreq+0x114>)
 8002caa:	61bb      	str	r3, [r7, #24]
  else
  {
    /* unexpected case: sysclockfreq at 0 */
  }

  if(sysclk_source == RCC_CFGR_SWS_PLL)
 8002cac:	693b      	ldr	r3, [r7, #16]
 8002cae:	2b0c      	cmp	r3, #12
 8002cb0:	d134      	bne.n	8002d1c <HAL_RCC_GetSysClockFreq+0xf8>
    /* PLL used as system clock  source */

    /* PLL_VCO = (HSE_VALUE or HSI_VALUE or MSI_VALUE) * PLLN / PLLM
    SYSCLK = PLL_VCO / PLLR
    */
    pllsource = READ_BIT(RCC->PLLCFGR, RCC_PLLCFGR_PLLSRC);
 8002cb2:	4b1e      	ldr	r3, [pc, #120]	@ (8002d2c <HAL_RCC_GetSysClockFreq+0x108>)
 8002cb4:	68db      	ldr	r3, [r3, #12]
 8002cb6:	f003 0303 	and.w	r3, r3, #3
 8002cba:	60bb      	str	r3, [r7, #8]

    switch (pllsource)
 8002cbc:	68bb      	ldr	r3, [r7, #8]
 8002cbe:	2b02      	cmp	r3, #2
 8002cc0:	d003      	beq.n	8002cca <HAL_RCC_GetSysClockFreq+0xa6>
 8002cc2:	68bb      	ldr	r3, [r7, #8]
 8002cc4:	2b03      	cmp	r3, #3
 8002cc6:	d003      	beq.n	8002cd0 <HAL_RCC_GetSysClockFreq+0xac>
 8002cc8:	e005      	b.n	8002cd6 <HAL_RCC_GetSysClockFreq+0xb2>
    {
    case RCC_PLLSOURCE_HSI:  /* HSI used as PLL clock source */
      pllvco = HSI_VALUE;
 8002cca:	4b1a      	ldr	r3, [pc, #104]	@ (8002d34 <HAL_RCC_GetSysClockFreq+0x110>)
 8002ccc:	617b      	str	r3, [r7, #20]
      break;
 8002cce:	e005      	b.n	8002cdc <HAL_RCC_GetSysClockFreq+0xb8>

    case RCC_PLLSOURCE_HSE:  /* HSE used as PLL clock source */
      pllvco = HSE_VALUE;
 8002cd0:	4b19      	ldr	r3, [pc, #100]	@ (8002d38 <HAL_RCC_GetSysClockFreq+0x114>)
 8002cd2:	617b      	str	r3, [r7, #20]
      break;
 8002cd4:	e002      	b.n	8002cdc <HAL_RCC_GetSysClockFreq+0xb8>

    case RCC_PLLSOURCE_MSI:  /* MSI used as PLL clock source */
    default:
      pllvco = msirange;
 8002cd6:	69fb      	ldr	r3, [r7, #28]
 8002cd8:	617b      	str	r3, [r7, #20]
      break;
 8002cda:	bf00      	nop
    }
    pllm = (READ_BIT(RCC->PLLCFGR, RCC_PLLCFGR_PLLM) >> RCC_PLLCFGR_PLLM_Pos) + 1U ;
 8002cdc:	4b13      	ldr	r3, [pc, #76]	@ (8002d2c <HAL_RCC_GetSysClockFreq+0x108>)
 8002cde:	68db      	ldr	r3, [r3, #12]
 8002ce0:	091b      	lsrs	r3, r3, #4
 8002ce2:	f003 0307 	and.w	r3, r3, #7
 8002ce6:	3301      	adds	r3, #1
 8002ce8:	607b      	str	r3, [r7, #4]
    pllvco = (pllvco * (READ_BIT(RCC->PLLCFGR, RCC_PLLCFGR_PLLN) >> RCC_PLLCFGR_PLLN_Pos)) / pllm;
 8002cea:	4b10      	ldr	r3, [pc, #64]	@ (8002d2c <HAL_RCC_GetSysClockFreq+0x108>)
 8002cec:	68db      	ldr	r3, [r3, #12]
 8002cee:	0a1b      	lsrs	r3, r3, #8
 8002cf0:	f003 037f 	and.w	r3, r3, #127	@ 0x7f
 8002cf4:	697a      	ldr	r2, [r7, #20]
 8002cf6:	fb03 f202 	mul.w	r2, r3, r2
 8002cfa:	687b      	ldr	r3, [r7, #4]
 8002cfc:	fbb2 f3f3 	udiv	r3, r2, r3
 8002d00:	617b      	str	r3, [r7, #20]
    pllr = ((READ_BIT(RCC->PLLCFGR, RCC_PLLCFGR_PLLR) >> RCC_PLLCFGR_PLLR_Pos) + 1U ) * 2U;
 8002d02:	4b0a      	ldr	r3, [pc, #40]	@ (8002d2c <HAL_RCC_GetSysClockFreq+0x108>)
 8002d04:	68db      	ldr	r3, [r3, #12]
 8002d06:	0e5b      	lsrs	r3, r3, #25
 8002d08:	f003 0303 	and.w	r3, r3, #3
 8002d0c:	3301      	adds	r3, #1
 8002d0e:	005b      	lsls	r3, r3, #1
 8002d10:	603b      	str	r3, [r7, #0]
    sysclockfreq = pllvco / pllr;
 8002d12:	697a      	ldr	r2, [r7, #20]
 8002d14:	683b      	ldr	r3, [r7, #0]
 8002d16:	fbb2 f3f3 	udiv	r3, r2, r3
 8002d1a:	61bb      	str	r3, [r7, #24]
  }

  return sysclockfreq;
 8002d1c:	69bb      	ldr	r3, [r7, #24]
}
 8002d1e:	4618      	mov	r0, r3
 8002d20:	3724      	adds	r7, #36	@ 0x24
 8002d22:	46bd      	mov	sp, r7
 8002d24:	f85d 7b04 	ldr.w	r7, [sp], #4
 8002d28:	4770      	bx	lr
 8002d2a:	bf00      	nop
 8002d2c:	40021000 	.word	0x40021000
 8002d30:	080044b4 	.word	0x080044b4
 8002d34:	00f42400 	.word	0x00f42400
 8002d38:	007a1200 	.word	0x007a1200

08002d3c <RCC_SetFlashLatencyFromMSIRange>:
            voltage range.
  * @param  msirange  MSI range value from RCC_MSIRANGE_0 to RCC_MSIRANGE_11
  * @retval HAL status
  */
static HAL_StatusTypeDef RCC_SetFlashLatencyFromMSIRange(uint32_t msirange)
{
 8002d3c:	b580      	push	{r7, lr}
 8002d3e:	b086      	sub	sp, #24
 8002d40:	af00      	add	r7, sp, #0
 8002d42:	6078      	str	r0, [r7, #4]
  uint32_t vos;
  uint32_t latency = FLASH_LATENCY_0;  /* default value 0WS */
 8002d44:	2300      	movs	r3, #0
 8002d46:	613b      	str	r3, [r7, #16]

  if(__HAL_RCC_PWR_IS_CLK_ENABLED())
 8002d48:	4b2a      	ldr	r3, [pc, #168]	@ (8002df4 <RCC_SetFlashLatencyFromMSIRange+0xb8>)
 8002d4a:	6d9b      	ldr	r3, [r3, #88]	@ 0x58
 8002d4c:	f003 5380 	and.w	r3, r3, #268435456	@ 0x10000000
 8002d50:	2b00      	cmp	r3, #0
 8002d52:	d003      	beq.n	8002d5c <RCC_SetFlashLatencyFromMSIRange+0x20>
  {
    vos = HAL_PWREx_GetVoltageRange();
 8002d54:	f7ff f9ee 	bl	8002134 <HAL_PWREx_GetVoltageRange>
 8002d58:	6178      	str	r0, [r7, #20]
 8002d5a:	e014      	b.n	8002d86 <RCC_SetFlashLatencyFromMSIRange+0x4a>
  }
  else
  {
    __HAL_RCC_PWR_CLK_ENABLE();
 8002d5c:	4b25      	ldr	r3, [pc, #148]	@ (8002df4 <RCC_SetFlashLatencyFromMSIRange+0xb8>)
 8002d5e:	6d9b      	ldr	r3, [r3, #88]	@ 0x58
 8002d60:	4a24      	ldr	r2, [pc, #144]	@ (8002df4 <RCC_SetFlashLatencyFromMSIRange+0xb8>)
 8002d62:	f043 5380 	orr.w	r3, r3, #268435456	@ 0x10000000
 8002d66:	6593      	str	r3, [r2, #88]	@ 0x58
 8002d68:	4b22      	ldr	r3, [pc, #136]	@ (8002df4 <RCC_SetFlashLatencyFromMSIRange+0xb8>)
 8002d6a:	6d9b      	ldr	r3, [r3, #88]	@ 0x58
 8002d6c:	f003 5380 	and.w	r3, r3, #268435456	@ 0x10000000
 8002d70:	60fb      	str	r3, [r7, #12]
 8002d72:	68fb      	ldr	r3, [r7, #12]
    vos = HAL_PWREx_GetVoltageRange();
 8002d74:	f7ff f9de 	bl	8002134 <HAL_PWREx_GetVoltageRange>
 8002d78:	6178      	str	r0, [r7, #20]
    __HAL_RCC_PWR_CLK_DISABLE();
 8002d7a:	4b1e      	ldr	r3, [pc, #120]	@ (8002df4 <RCC_SetFlashLatencyFromMSIRange+0xb8>)
 8002d7c:	6d9b      	ldr	r3, [r3, #88]	@ 0x58
 8002d7e:	4a1d      	ldr	r2, [pc, #116]	@ (8002df4 <RCC_SetFlashLatencyFromMSIRange+0xb8>)
 8002d80:	f023 5380 	bic.w	r3, r3, #268435456	@ 0x10000000
 8002d84:	6593      	str	r3, [r2, #88]	@ 0x58
  }

  if(vos == PWR_REGULATOR_VOLTAGE_SCALE1)
 8002d86:	697b      	ldr	r3, [r7, #20]
 8002d88:	f5b3 7f00 	cmp.w	r3, #512	@ 0x200
 8002d8c:	d10b      	bne.n	8002da6 <RCC_SetFlashLatencyFromMSIRange+0x6a>
  {
    if(msirange > RCC_MSIRANGE_8)
 8002d8e:	687b      	ldr	r3, [r7, #4]
 8002d90:	2b80      	cmp	r3, #128	@ 0x80
 8002d92:	d919      	bls.n	8002dc8 <RCC_SetFlashLatencyFromMSIRange+0x8c>
    {
      /* MSI > 16Mhz */
      if(msirange > RCC_MSIRANGE_10)
 8002d94:	687b      	ldr	r3, [r7, #4]
 8002d96:	2ba0      	cmp	r3, #160	@ 0xa0
 8002d98:	d902      	bls.n	8002da0 <RCC_SetFlashLatencyFromMSIRange+0x64>
      {
        /* MSI 48Mhz */
        latency = FLASH_LATENCY_2; /* 2WS */
 8002d9a:	2302      	movs	r3, #2
 8002d9c:	613b      	str	r3, [r7, #16]
 8002d9e:	e013      	b.n	8002dc8 <RCC_SetFlashLatencyFromMSIRange+0x8c>
      }
      else
      {
        /* MSI 24Mhz or 32Mhz */
        latency = FLASH_LATENCY_1; /* 1WS */
 8002da0:	2301      	movs	r3, #1
 8002da2:	613b      	str	r3, [r7, #16]
 8002da4:	e010      	b.n	8002dc8 <RCC_SetFlashLatencyFromMSIRange+0x8c>
        latency = FLASH_LATENCY_1; /* 1WS */
      }
      /* else MSI < 8Mhz default FLASH_LATENCY_0 0WS */
    }
#else
    if(msirange > RCC_MSIRANGE_8)
 8002da6:	687b      	ldr	r3, [r7, #4]
 8002da8:	2b80      	cmp	r3, #128	@ 0x80
 8002daa:	d902      	bls.n	8002db2 <RCC_SetFlashLatencyFromMSIRange+0x76>
    {
      /* MSI > 16Mhz */
      latency = FLASH_LATENCY_3; /* 3WS */
 8002dac:	2303      	movs	r3, #3
 8002dae:	613b      	str	r3, [r7, #16]
 8002db0:	e00a      	b.n	8002dc8 <RCC_SetFlashLatencyFromMSIRange+0x8c>
    }
    else
    {
      if(msirange == RCC_MSIRANGE_8)
 8002db2:	687b      	ldr	r3, [r7, #4]
 8002db4:	2b80      	cmp	r3, #128	@ 0x80
 8002db6:	d102      	bne.n	8002dbe <RCC_SetFlashLatencyFromMSIRange+0x82>
      {
        /* MSI 16Mhz */
        latency = FLASH_LATENCY_2; /* 2WS */
 8002db8:	2302      	movs	r3, #2
 8002dba:	613b      	str	r3, [r7, #16]
 8002dbc:	e004      	b.n	8002dc8 <RCC_SetFlashLatencyFromMSIRange+0x8c>
      }
      else if(msirange == RCC_MSIRANGE_7)
 8002dbe:	687b      	ldr	r3, [r7, #4]
 8002dc0:	2b70      	cmp	r3, #112	@ 0x70
 8002dc2:	d101      	bne.n	8002dc8 <RCC_SetFlashLatencyFromMSIRange+0x8c>
      {
        /* MSI 8Mhz */
        latency = FLASH_LATENCY_1; /* 1WS */
 8002dc4:	2301      	movs	r3, #1
 8002dc6:	613b      	str	r3, [r7, #16]
      /* else MSI < 8Mhz default FLASH_LATENCY_0 0WS */
    }
#endif
  }

  __HAL_FLASH_SET_LATENCY(latency);
 8002dc8:	4b0b      	ldr	r3, [pc, #44]	@ (8002df8 <RCC_SetFlashLatencyFromMSIRange+0xbc>)
 8002dca:	681b      	ldr	r3, [r3, #0]
 8002dcc:	f023 0207 	bic.w	r2, r3, #7
 8002dd0:	4909      	ldr	r1, [pc, #36]	@ (8002df8 <RCC_SetFlashLatencyFromMSIRange+0xbc>)
 8002dd2:	693b      	ldr	r3, [r7, #16]
 8002dd4:	4313      	orrs	r3, r2
 8002dd6:	600b      	str	r3, [r1, #0]

  /* Check that the new number of wait states is taken into account to access the Flash
     memory by reading the FLASH_ACR register */
  if(__HAL_FLASH_GET_LATENCY() != latency)
 8002dd8:	4b07      	ldr	r3, [pc, #28]	@ (8002df8 <RCC_SetFlashLatencyFromMSIRange+0xbc>)
 8002dda:	681b      	ldr	r3, [r3, #0]
 8002ddc:	f003 0307 	and.w	r3, r3, #7
 8002de0:	693a      	ldr	r2, [r7, #16]
 8002de2:	429a      	cmp	r2, r3
 8002de4:	d001      	beq.n	8002dea <RCC_SetFlashLatencyFromMSIRange+0xae>
  {
    return HAL_ERROR;
 8002de6:	2301      	movs	r3, #1
 8002de8:	e000      	b.n	8002dec <RCC_SetFlashLatencyFromMSIRange+0xb0>
  }

  return HAL_OK;
 8002dea:	2300      	movs	r3, #0
}
 8002dec:	4618      	mov	r0, r3
 8002dee:	3718      	adds	r7, #24
 8002df0:	46bd      	mov	sp, r7
 8002df2:	bd80      	pop	{r7, pc}
 8002df4:	40021000 	.word	0x40021000
 8002df8:	40022000 	.word	0x40022000

08002dfc <HAL_SPI_Init>:
  * @param  hspi pointer to a SPI_HandleTypeDef structure that contains
  *               the configuration information for SPI module.
  * @retval HAL status
  */
HAL_StatusTypeDef HAL_SPI_Init(SPI_HandleTypeDef *hspi)
{
 8002dfc:	b580      	push	{r7, lr}
 8002dfe:	b084      	sub	sp, #16
 8002e00:	af00      	add	r7, sp, #0
 8002e02:	6078      	str	r0, [r7, #4]
  uint32_t frxth;

  /* Check the SPI handle allocation */
  if (hspi == NULL)
 8002e04:	687b      	ldr	r3, [r7, #4]
 8002e06:	2b00      	cmp	r3, #0
 8002e08:	d101      	bne.n	8002e0e <HAL_SPI_Init+0x12>
  {
    return HAL_ERROR;
 8002e0a:	2301      	movs	r3, #1
 8002e0c:	e095      	b.n	8002f3a <HAL_SPI_Init+0x13e>
  assert_param(IS_SPI_NSS(hspi->Init.NSS));
  assert_param(IS_SPI_NSSP(hspi->Init.NSSPMode));
  assert_param(IS_SPI_BAUDRATE_PRESCALER(hspi->Init.BaudRatePrescaler));
  assert_param(IS_SPI_FIRST_BIT(hspi->Init.FirstBit));
  assert_param(IS_SPI_TIMODE(hspi->Init.TIMode));
  if (hspi->Init.TIMode == SPI_TIMODE_DISABLE)
 8002e0e:	687b      	ldr	r3, [r7, #4]
 8002e10:	6a5b      	ldr	r3, [r3, #36]	@ 0x24
 8002e12:	2b00      	cmp	r3, #0
 8002e14:	d108      	bne.n	8002e28 <HAL_SPI_Init+0x2c>
  {
    assert_param(IS_SPI_CPOL(hspi->Init.CLKPolarity));
    assert_param(IS_SPI_CPHA(hspi->Init.CLKPhase));

    if (hspi->Init.Mode == SPI_MODE_MASTER)
 8002e16:	687b      	ldr	r3, [r7, #4]
 8002e18:	685b      	ldr	r3, [r3, #4]
 8002e1a:	f5b3 7f82 	cmp.w	r3, #260	@ 0x104
 8002e1e:	d009      	beq.n	8002e34 <HAL_SPI_Init+0x38>
      assert_param(IS_SPI_BAUDRATE_PRESCALER(hspi->Init.BaudRatePrescaler));
    }
    else
    {
      /* Baudrate prescaler not use in Motoraola Slave mode. force to default value */
      hspi->Init.BaudRatePrescaler = SPI_BAUDRATEPRESCALER_2;
 8002e20:	687b      	ldr	r3, [r7, #4]
 8002e22:	2200      	movs	r2, #0
 8002e24:	61da      	str	r2, [r3, #28]
 8002e26:	e005      	b.n	8002e34 <HAL_SPI_Init+0x38>
  else
  {
    assert_param(IS_SPI_BAUDRATE_PRESCALER(hspi->Init.BaudRatePrescaler));

    /* Force polarity and phase to TI protocaol requirements */
    hspi->Init.CLKPolarity = SPI_POLARITY_LOW;
 8002e28:	687b      	ldr	r3, [r7, #4]
 8002e2a:	2200      	movs	r2, #0
 8002e2c:	611a      	str	r2, [r3, #16]
    hspi->Init.CLKPhase    = SPI_PHASE_1EDGE;
 8002e2e:	687b      	ldr	r3, [r7, #4]
 8002e30:	2200      	movs	r2, #0
 8002e32:	615a      	str	r2, [r3, #20]
  {
    assert_param(IS_SPI_CRC_POLYNOMIAL(hspi->Init.CRCPolynomial));
    assert_param(IS_SPI_CRC_LENGTH(hspi->Init.CRCLength));
  }
#else
  hspi->Init.CRCCalculation = SPI_CRCCALCULATION_DISABLE;
 8002e34:	687b      	ldr	r3, [r7, #4]
 8002e36:	2200      	movs	r2, #0
 8002e38:	629a      	str	r2, [r3, #40]	@ 0x28
#endif /* USE_SPI_CRC */

  if (hspi->State == HAL_SPI_STATE_RESET)
 8002e3a:	687b      	ldr	r3, [r7, #4]
 8002e3c:	f893 305d 	ldrb.w	r3, [r3, #93]	@ 0x5d
 8002e40:	b2db      	uxtb	r3, r3
 8002e42:	2b00      	cmp	r3, #0
 8002e44:	d106      	bne.n	8002e54 <HAL_SPI_Init+0x58>
  {
    /* Allocate lock resource and initialize it */
    hspi->Lock = HAL_UNLOCKED;
 8002e46:	687b      	ldr	r3, [r7, #4]
 8002e48:	2200      	movs	r2, #0
 8002e4a:	f883 205c 	strb.w	r2, [r3, #92]	@ 0x5c

    /* Init the low level hardware : GPIO, CLOCK, NVIC... */
    hspi->MspInitCallback(hspi);
#else
    /* Init the low level hardware : GPIO, CLOCK, NVIC... */
    HAL_SPI_MspInit(hspi);
 8002e4e:	6878      	ldr	r0, [r7, #4]
 8002e50:	f7fe fdc2 	bl	80019d8 <HAL_SPI_MspInit>
#endif /* USE_HAL_SPI_REGISTER_CALLBACKS */
  }

  hspi->State = HAL_SPI_STATE_BUSY;
 8002e54:	687b      	ldr	r3, [r7, #4]
 8002e56:	2202      	movs	r2, #2
 8002e58:	f883 205d 	strb.w	r2, [r3, #93]	@ 0x5d

  /* Disable the selected SPI peripheral */
  __HAL_SPI_DISABLE(hspi);
 8002e5c:	687b      	ldr	r3, [r7, #4]
 8002e5e:	681b      	ldr	r3, [r3, #0]
 8002e60:	681a      	ldr	r2, [r3, #0]
 8002e62:	687b      	ldr	r3, [r7, #4]
 8002e64:	681b      	ldr	r3, [r3, #0]
 8002e66:	f022 0240 	bic.w	r2, r2, #64	@ 0x40
 8002e6a:	601a      	str	r2, [r3, #0]

  /* Align by default the rs fifo threshold on the data size */
  if (hspi->Init.DataSize > SPI_DATASIZE_8BIT)
 8002e6c:	687b      	ldr	r3, [r7, #4]
 8002e6e:	68db      	ldr	r3, [r3, #12]
 8002e70:	f5b3 6fe0 	cmp.w	r3, #1792	@ 0x700
 8002e74:	d902      	bls.n	8002e7c <HAL_SPI_Init+0x80>
  {
    frxth = SPI_RXFIFO_THRESHOLD_HF;
 8002e76:	2300      	movs	r3, #0
 8002e78:	60fb      	str	r3, [r7, #12]
 8002e7a:	e002      	b.n	8002e82 <HAL_SPI_Init+0x86>
  }
  else
  {
    frxth = SPI_RXFIFO_THRESHOLD_QF;
 8002e7c:	f44f 5380 	mov.w	r3, #4096	@ 0x1000
 8002e80:	60fb      	str	r3, [r7, #12]
  }

  /* CRC calculation is valid only for 16Bit and 8 Bit */
  if ((hspi->Init.DataSize != SPI_DATASIZE_16BIT) && (hspi->Init.DataSize != SPI_DATASIZE_8BIT))
 8002e82:	687b      	ldr	r3, [r7, #4]
 8002e84:	68db      	ldr	r3, [r3, #12]
 8002e86:	f5b3 6f70 	cmp.w	r3, #3840	@ 0xf00
 8002e8a:	d007      	beq.n	8002e9c <HAL_SPI_Init+0xa0>
 8002e8c:	687b      	ldr	r3, [r7, #4]
 8002e8e:	68db      	ldr	r3, [r3, #12]
 8002e90:	f5b3 6fe0 	cmp.w	r3, #1792	@ 0x700
 8002e94:	d002      	beq.n	8002e9c <HAL_SPI_Init+0xa0>
  {
    /* CRC must be disabled */
    hspi->Init.CRCCalculation = SPI_CRCCALCULATION_DISABLE;
 8002e96:	687b      	ldr	r3, [r7, #4]
 8002e98:	2200      	movs	r2, #0
 8002e9a:	629a      	str	r2, [r3, #40]	@ 0x28
  }

  /*----------------------- SPIx CR1 & CR2 Configuration ---------------------*/
  /* Configure : SPI Mode, Communication Mode, Clock polarity and phase, NSS management,
  Communication speed, First bit and CRC calculation state */
  WRITE_REG(hspi->Instance->CR1, ((hspi->Init.Mode & (SPI_CR1_MSTR | SPI_CR1_SSI)) |
 8002e9c:	687b      	ldr	r3, [r7, #4]
 8002e9e:	685b      	ldr	r3, [r3, #4]
 8002ea0:	f403 7282 	and.w	r2, r3, #260	@ 0x104
 8002ea4:	687b      	ldr	r3, [r7, #4]
 8002ea6:	689b      	ldr	r3, [r3, #8]
 8002ea8:	f403 4304 	and.w	r3, r3, #33792	@ 0x8400
 8002eac:	431a      	orrs	r2, r3
 8002eae:	687b      	ldr	r3, [r7, #4]
 8002eb0:	691b      	ldr	r3, [r3, #16]
 8002eb2:	f003 0302 	and.w	r3, r3, #2
 8002eb6:	431a      	orrs	r2, r3
 8002eb8:	687b      	ldr	r3, [r7, #4]
 8002eba:	695b      	ldr	r3, [r3, #20]
 8002ebc:	f003 0301 	and.w	r3, r3, #1
 8002ec0:	431a      	orrs	r2, r3
 8002ec2:	687b      	ldr	r3, [r7, #4]
 8002ec4:	699b      	ldr	r3, [r3, #24]
 8002ec6:	f403 7300 	and.w	r3, r3, #512	@ 0x200
 8002eca:	431a      	orrs	r2, r3
 8002ecc:	687b      	ldr	r3, [r7, #4]
 8002ece:	69db      	ldr	r3, [r3, #28]
 8002ed0:	f003 0338 	and.w	r3, r3, #56	@ 0x38
 8002ed4:	431a      	orrs	r2, r3
 8002ed6:	687b      	ldr	r3, [r7, #4]
 8002ed8:	6a1b      	ldr	r3, [r3, #32]
 8002eda:	f003 0380 	and.w	r3, r3, #128	@ 0x80
 8002ede:	ea42 0103 	orr.w	r1, r2, r3
 8002ee2:	687b      	ldr	r3, [r7, #4]
 8002ee4:	6a9b      	ldr	r3, [r3, #40]	@ 0x28
 8002ee6:	f403 5200 	and.w	r2, r3, #8192	@ 0x2000
 8002eea:	687b      	ldr	r3, [r7, #4]
 8002eec:	681b      	ldr	r3, [r3, #0]
 8002eee:	430a      	orrs	r2, r1
 8002ef0:	601a      	str	r2, [r3, #0]
    }
  }
#endif /* USE_SPI_CRC */

  /* Configure : NSS management, TI Mode, NSS Pulse, Data size and Rx Fifo threshold */
  WRITE_REG(hspi->Instance->CR2, (((hspi->Init.NSS >> 16U) & SPI_CR2_SSOE) |
 8002ef2:	687b      	ldr	r3, [r7, #4]
 8002ef4:	699b      	ldr	r3, [r3, #24]
 8002ef6:	0c1b      	lsrs	r3, r3, #16
 8002ef8:	f003 0204 	and.w	r2, r3, #4
 8002efc:	687b      	ldr	r3, [r7, #4]
 8002efe:	6a5b      	ldr	r3, [r3, #36]	@ 0x24
 8002f00:	f003 0310 	and.w	r3, r3, #16
 8002f04:	431a      	orrs	r2, r3
 8002f06:	687b      	ldr	r3, [r7, #4]
 8002f08:	6b5b      	ldr	r3, [r3, #52]	@ 0x34
 8002f0a:	f003 0308 	and.w	r3, r3, #8
 8002f0e:	431a      	orrs	r2, r3
 8002f10:	687b      	ldr	r3, [r7, #4]
 8002f12:	68db      	ldr	r3, [r3, #12]
 8002f14:	f403 6370 	and.w	r3, r3, #3840	@ 0xf00
 8002f18:	ea42 0103 	orr.w	r1, r2, r3
 8002f1c:	68fb      	ldr	r3, [r7, #12]
 8002f1e:	f403 5280 	and.w	r2, r3, #4096	@ 0x1000
 8002f22:	687b      	ldr	r3, [r7, #4]
 8002f24:	681b      	ldr	r3, [r3, #0]
 8002f26:	430a      	orrs	r2, r1
 8002f28:	605a      	str	r2, [r3, #4]
#if defined(SPI_I2SCFGR_I2SMOD)
  /* Activate the SPI mode (Make sure that I2SMOD bit in I2SCFGR register is reset) */
  CLEAR_BIT(hspi->Instance->I2SCFGR, SPI_I2SCFGR_I2SMOD);
#endif /* SPI_I2SCFGR_I2SMOD */

  hspi->ErrorCode = HAL_SPI_ERROR_NONE;
 8002f2a:	687b      	ldr	r3, [r7, #4]
 8002f2c:	2200      	movs	r2, #0
 8002f2e:	661a      	str	r2, [r3, #96]	@ 0x60
  hspi->State     = HAL_SPI_STATE_READY;
 8002f30:	687b      	ldr	r3, [r7, #4]
 8002f32:	2201      	movs	r2, #1
 8002f34:	f883 205d 	strb.w	r2, [r3, #93]	@ 0x5d

  return HAL_OK;
 8002f38:	2300      	movs	r3, #0
}
 8002f3a:	4618      	mov	r0, r3
 8002f3c:	3710      	adds	r7, #16
 8002f3e:	46bd      	mov	sp, r7
 8002f40:	bd80      	pop	{r7, pc}

08002f42 <HAL_SPI_Transmit>:
  * @param  Size amount of data to be sent
  * @param  Timeout Timeout duration
  * @retval HAL status
  */
HAL_StatusTypeDef HAL_SPI_Transmit(SPI_HandleTypeDef *hspi, uint8_t *pData, uint16_t Size, uint32_t Timeout)
{
 8002f42:	b580      	push	{r7, lr}
 8002f44:	b088      	sub	sp, #32
 8002f46:	af00      	add	r7, sp, #0
 8002f48:	60f8      	str	r0, [r7, #12]
 8002f4a:	60b9      	str	r1, [r7, #8]
 8002f4c:	603b      	str	r3, [r7, #0]
 8002f4e:	4613      	mov	r3, r2
 8002f50:	80fb      	strh	r3, [r7, #6]
  uint32_t tickstart;
  HAL_StatusTypeDef errorcode = HAL_OK;
 8002f52:	2300      	movs	r3, #0
 8002f54:	77fb      	strb	r3, [r7, #31]

  /* Check Direction parameter */
  assert_param(IS_SPI_DIRECTION_2LINES_OR_1LINE(hspi->Init.Direction));

  /* Process Locked */
  __HAL_LOCK(hspi);
 8002f56:	68fb      	ldr	r3, [r7, #12]
 8002f58:	f893 305c 	ldrb.w	r3, [r3, #92]	@ 0x5c
 8002f5c:	2b01      	cmp	r3, #1
 8002f5e:	d101      	bne.n	8002f64 <HAL_SPI_Transmit+0x22>
 8002f60:	2302      	movs	r3, #2
 8002f62:	e15f      	b.n	8003224 <HAL_SPI_Transmit+0x2e2>
 8002f64:	68fb      	ldr	r3, [r7, #12]
 8002f66:	2201      	movs	r2, #1
 8002f68:	f883 205c 	strb.w	r2, [r3, #92]	@ 0x5c

  /* Init tickstart for timeout management*/
  tickstart = HAL_GetTick();
 8002f6c:	f7fe fe4a 	bl	8001c04 <HAL_GetTick>
 8002f70:	61b8      	str	r0, [r7, #24]
  initial_TxXferCount = Size;
 8002f72:	88fb      	ldrh	r3, [r7, #6]
 8002f74:	82fb      	strh	r3, [r7, #22]

  if (hspi->State != HAL_SPI_STATE_READY)
 8002f76:	68fb      	ldr	r3, [r7, #12]
 8002f78:	f893 305d 	ldrb.w	r3, [r3, #93]	@ 0x5d
 8002f7c:	b2db      	uxtb	r3, r3
 8002f7e:	2b01      	cmp	r3, #1
 8002f80:	d002      	beq.n	8002f88 <HAL_SPI_Transmit+0x46>
  {
    errorcode = HAL_BUSY;
 8002f82:	2302      	movs	r3, #2
 8002f84:	77fb      	strb	r3, [r7, #31]
    goto error;
 8002f86:	e148      	b.n	800321a <HAL_SPI_Transmit+0x2d8>
  }

  if ((pData == NULL) || (Size == 0U))
 8002f88:	68bb      	ldr	r3, [r7, #8]
 8002f8a:	2b00      	cmp	r3, #0
 8002f8c:	d002      	beq.n	8002f94 <HAL_SPI_Transmit+0x52>
 8002f8e:	88fb      	ldrh	r3, [r7, #6]
 8002f90:	2b00      	cmp	r3, #0
 8002f92:	d102      	bne.n	8002f9a <HAL_SPI_Transmit+0x58>
  {
    errorcode = HAL_ERROR;
 8002f94:	2301      	movs	r3, #1
 8002f96:	77fb      	strb	r3, [r7, #31]
    goto error;
 8002f98:	e13f      	b.n	800321a <HAL_SPI_Transmit+0x2d8>
  }

  /* Set the transaction information */
  hspi->State       = HAL_SPI_STATE_BUSY_TX;
 8002f9a:	68fb      	ldr	r3, [r7, #12]
 8002f9c:	2203      	movs	r2, #3
 8002f9e:	f883 205d 	strb.w	r2, [r3, #93]	@ 0x5d
  hspi->ErrorCode   = HAL_SPI_ERROR_NONE;
 8002fa2:	68fb      	ldr	r3, [r7, #12]
 8002fa4:	2200      	movs	r2, #0
 8002fa6:	661a      	str	r2, [r3, #96]	@ 0x60
  hspi->pTxBuffPtr  = (uint8_t *)pData;
 8002fa8:	68fb      	ldr	r3, [r7, #12]
 8002faa:	68ba      	ldr	r2, [r7, #8]
 8002fac:	639a      	str	r2, [r3, #56]	@ 0x38
  hspi->TxXferSize  = Size;
 8002fae:	68fb      	ldr	r3, [r7, #12]
 8002fb0:	88fa      	ldrh	r2, [r7, #6]
 8002fb2:	879a      	strh	r2, [r3, #60]	@ 0x3c
  hspi->TxXferCount = Size;
 8002fb4:	68fb      	ldr	r3, [r7, #12]
 8002fb6:	88fa      	ldrh	r2, [r7, #6]
 8002fb8:	87da      	strh	r2, [r3, #62]	@ 0x3e

  /*Init field not used in handle to zero */
  hspi->pRxBuffPtr  = (uint8_t *)NULL;
 8002fba:	68fb      	ldr	r3, [r7, #12]
 8002fbc:	2200      	movs	r2, #0
 8002fbe:	641a      	str	r2, [r3, #64]	@ 0x40
  hspi->RxXferSize  = 0U;
 8002fc0:	68fb      	ldr	r3, [r7, #12]
 8002fc2:	2200      	movs	r2, #0
 8002fc4:	f8a3 2044 	strh.w	r2, [r3, #68]	@ 0x44
  hspi->RxXferCount = 0U;
 8002fc8:	68fb      	ldr	r3, [r7, #12]
 8002fca:	2200      	movs	r2, #0
 8002fcc:	f8a3 2046 	strh.w	r2, [r3, #70]	@ 0x46
  hspi->TxISR       = NULL;
 8002fd0:	68fb      	ldr	r3, [r7, #12]
 8002fd2:	2200      	movs	r2, #0
 8002fd4:	651a      	str	r2, [r3, #80]	@ 0x50
  hspi->RxISR       = NULL;
 8002fd6:	68fb      	ldr	r3, [r7, #12]
 8002fd8:	2200      	movs	r2, #0
 8002fda:	64da      	str	r2, [r3, #76]	@ 0x4c

  /* Configure communication direction : 1Line */
  if (hspi->Init.Direction == SPI_DIRECTION_1LINE)
 8002fdc:	68fb      	ldr	r3, [r7, #12]
 8002fde:	689b      	ldr	r3, [r3, #8]
 8002fe0:	f5b3 4f00 	cmp.w	r3, #32768	@ 0x8000
 8002fe4:	d10f      	bne.n	8003006 <HAL_SPI_Transmit+0xc4>
  {
    /* Disable SPI Peripheral before set 1Line direction (BIDIOE bit) */
    __HAL_SPI_DISABLE(hspi);
 8002fe6:	68fb      	ldr	r3, [r7, #12]
 8002fe8:	681b      	ldr	r3, [r3, #0]
 8002fea:	681a      	ldr	r2, [r3, #0]
 8002fec:	68fb      	ldr	r3, [r7, #12]
 8002fee:	681b      	ldr	r3, [r3, #0]
 8002ff0:	f022 0240 	bic.w	r2, r2, #64	@ 0x40
 8002ff4:	601a      	str	r2, [r3, #0]
    SPI_1LINE_TX(hspi);
 8002ff6:	68fb      	ldr	r3, [r7, #12]
 8002ff8:	681b      	ldr	r3, [r3, #0]
 8002ffa:	681a      	ldr	r2, [r3, #0]
 8002ffc:	68fb      	ldr	r3, [r7, #12]
 8002ffe:	681b      	ldr	r3, [r3, #0]
 8003000:	f442 4280 	orr.w	r2, r2, #16384	@ 0x4000
 8003004:	601a      	str	r2, [r3, #0]
    SPI_RESET_CRC(hspi);
  }
#endif /* USE_SPI_CRC */

  /* Check if the SPI is already enabled */
  if ((hspi->Instance->CR1 & SPI_CR1_SPE) != SPI_CR1_SPE)
 8003006:	68fb      	ldr	r3, [r7, #12]
 8003008:	681b      	ldr	r3, [r3, #0]
 800300a:	681b      	ldr	r3, [r3, #0]
 800300c:	f003 0340 	and.w	r3, r3, #64	@ 0x40
 8003010:	2b40      	cmp	r3, #64	@ 0x40
 8003012:	d007      	beq.n	8003024 <HAL_SPI_Transmit+0xe2>
  {
    /* Enable SPI peripheral */
    __HAL_SPI_ENABLE(hspi);
 8003014:	68fb      	ldr	r3, [r7, #12]
 8003016:	681b      	ldr	r3, [r3, #0]
 8003018:	681a      	ldr	r2, [r3, #0]
 800301a:	68fb      	ldr	r3, [r7, #12]
 800301c:	681b      	ldr	r3, [r3, #0]
 800301e:	f042 0240 	orr.w	r2, r2, #64	@ 0x40
 8003022:	601a      	str	r2, [r3, #0]
  }

  /* Transmit data in 16 Bit mode */
  if (hspi->Init.DataSize > SPI_DATASIZE_8BIT)
 8003024:	68fb      	ldr	r3, [r7, #12]
 8003026:	68db      	ldr	r3, [r3, #12]
 8003028:	f5b3 6fe0 	cmp.w	r3, #1792	@ 0x700
 800302c:	d94f      	bls.n	80030ce <HAL_SPI_Transmit+0x18c>
  {
    if ((hspi->Init.Mode == SPI_MODE_SLAVE) || (initial_TxXferCount == 0x01U))
 800302e:	68fb      	ldr	r3, [r7, #12]
 8003030:	685b      	ldr	r3, [r3, #4]
 8003032:	2b00      	cmp	r3, #0
 8003034:	d002      	beq.n	800303c <HAL_SPI_Transmit+0xfa>
 8003036:	8afb      	ldrh	r3, [r7, #22]
 8003038:	2b01      	cmp	r3, #1
 800303a:	d142      	bne.n	80030c2 <HAL_SPI_Transmit+0x180>
    {
      hspi->Instance->DR = *((uint16_t *)hspi->pTxBuffPtr);
 800303c:	68fb      	ldr	r3, [r7, #12]
 800303e:	6b9b      	ldr	r3, [r3, #56]	@ 0x38
 8003040:	881a      	ldrh	r2, [r3, #0]
 8003042:	68fb      	ldr	r3, [r7, #12]
 8003044:	681b      	ldr	r3, [r3, #0]
 8003046:	60da      	str	r2, [r3, #12]
      hspi->pTxBuffPtr += sizeof(uint16_t);
 8003048:	68fb      	ldr	r3, [r7, #12]
 800304a:	6b9b      	ldr	r3, [r3, #56]	@ 0x38
 800304c:	1c9a      	adds	r2, r3, #2
 800304e:	68fb      	ldr	r3, [r7, #12]
 8003050:	639a      	str	r2, [r3, #56]	@ 0x38
      hspi->TxXferCount--;
 8003052:	68fb      	ldr	r3, [r7, #12]
 8003054:	8fdb      	ldrh	r3, [r3, #62]	@ 0x3e
 8003056:	b29b      	uxth	r3, r3
 8003058:	3b01      	subs	r3, #1
 800305a:	b29a      	uxth	r2, r3
 800305c:	68fb      	ldr	r3, [r7, #12]
 800305e:	87da      	strh	r2, [r3, #62]	@ 0x3e
    }
    /* Transmit data in 16 Bit mode */
    while (hspi->TxXferCount > 0U)
 8003060:	e02f      	b.n	80030c2 <HAL_SPI_Transmit+0x180>
    {
      /* Wait until TXE flag is set to send data */
      if (__HAL_SPI_GET_FLAG(hspi, SPI_FLAG_TXE))
 8003062:	68fb      	ldr	r3, [r7, #12]
 8003064:	681b      	ldr	r3, [r3, #0]
 8003066:	689b      	ldr	r3, [r3, #8]
 8003068:	f003 0302 	and.w	r3, r3, #2
 800306c:	2b02      	cmp	r3, #2
 800306e:	d112      	bne.n	8003096 <HAL_SPI_Transmit+0x154>
      {
        hspi->Instance->DR = *((uint16_t *)hspi->pTxBuffPtr);
 8003070:	68fb      	ldr	r3, [r7, #12]
 8003072:	6b9b      	ldr	r3, [r3, #56]	@ 0x38
 8003074:	881a      	ldrh	r2, [r3, #0]
 8003076:	68fb      	ldr	r3, [r7, #12]
 8003078:	681b      	ldr	r3, [r3, #0]
 800307a:	60da      	str	r2, [r3, #12]
        hspi->pTxBuffPtr += sizeof(uint16_t);
 800307c:	68fb      	ldr	r3, [r7, #12]
 800307e:	6b9b      	ldr	r3, [r3, #56]	@ 0x38
 8003080:	1c9a      	adds	r2, r3, #2
 8003082:	68fb      	ldr	r3, [r7, #12]
 8003084:	639a      	str	r2, [r3, #56]	@ 0x38
        hspi->TxXferCount--;
 8003086:	68fb      	ldr	r3, [r7, #12]
 8003088:	8fdb      	ldrh	r3, [r3, #62]	@ 0x3e
 800308a:	b29b      	uxth	r3, r3
 800308c:	3b01      	subs	r3, #1
 800308e:	b29a      	uxth	r2, r3
 8003090:	68fb      	ldr	r3, [r7, #12]
 8003092:	87da      	strh	r2, [r3, #62]	@ 0x3e
 8003094:	e015      	b.n	80030c2 <HAL_SPI_Transmit+0x180>
      }
      else
      {
        /* Timeout management */
        if ((((HAL_GetTick() - tickstart) >=  Timeout) && (Timeout != HAL_MAX_DELAY)) || (Timeout == 0U))
 8003096:	f7fe fdb5 	bl	8001c04 <HAL_GetTick>
 800309a:	4602      	mov	r2, r0
 800309c:	69bb      	ldr	r3, [r7, #24]
 800309e:	1ad3      	subs	r3, r2, r3
 80030a0:	683a      	ldr	r2, [r7, #0]
 80030a2:	429a      	cmp	r2, r3
 80030a4:	d803      	bhi.n	80030ae <HAL_SPI_Transmit+0x16c>
 80030a6:	683b      	ldr	r3, [r7, #0]
 80030a8:	f1b3 3fff 	cmp.w	r3, #4294967295
 80030ac:	d102      	bne.n	80030b4 <HAL_SPI_Transmit+0x172>
 80030ae:	683b      	ldr	r3, [r7, #0]
 80030b0:	2b00      	cmp	r3, #0
 80030b2:	d106      	bne.n	80030c2 <HAL_SPI_Transmit+0x180>
        {
          errorcode = HAL_TIMEOUT;
 80030b4:	2303      	movs	r3, #3
 80030b6:	77fb      	strb	r3, [r7, #31]
          hspi->State = HAL_SPI_STATE_READY;
 80030b8:	68fb      	ldr	r3, [r7, #12]
 80030ba:	2201      	movs	r2, #1
 80030bc:	f883 205d 	strb.w	r2, [r3, #93]	@ 0x5d
          goto error;
 80030c0:	e0ab      	b.n	800321a <HAL_SPI_Transmit+0x2d8>
    while (hspi->TxXferCount > 0U)
 80030c2:	68fb      	ldr	r3, [r7, #12]
 80030c4:	8fdb      	ldrh	r3, [r3, #62]	@ 0x3e
 80030c6:	b29b      	uxth	r3, r3
 80030c8:	2b00      	cmp	r3, #0
 80030ca:	d1ca      	bne.n	8003062 <HAL_SPI_Transmit+0x120>
 80030cc:	e080      	b.n	80031d0 <HAL_SPI_Transmit+0x28e>
    }
  }
  /* Transmit data in 8 Bit mode */
  else
  {
    if ((hspi->Init.Mode == SPI_MODE_SLAVE) || (initial_TxXferCount == 0x01U))
 80030ce:	68fb      	ldr	r3, [r7, #12]
 80030d0:	685b      	ldr	r3, [r3, #4]
 80030d2:	2b00      	cmp	r3, #0
 80030d4:	d002      	beq.n	80030dc <HAL_SPI_Transmit+0x19a>
 80030d6:	8afb      	ldrh	r3, [r7, #22]
 80030d8:	2b01      	cmp	r3, #1
 80030da:	d174      	bne.n	80031c6 <HAL_SPI_Transmit+0x284>
    {
      if (hspi->TxXferCount > 1U)
 80030dc:	68fb      	ldr	r3, [r7, #12]
 80030de:	8fdb      	ldrh	r3, [r3, #62]	@ 0x3e
 80030e0:	b29b      	uxth	r3, r3
 80030e2:	2b01      	cmp	r3, #1
 80030e4:	d912      	bls.n	800310c <HAL_SPI_Transmit+0x1ca>
      {
        /* write on the data register in packing mode */
        hspi->Instance->DR = *((uint16_t *)hspi->pTxBuffPtr);
 80030e6:	68fb      	ldr	r3, [r7, #12]
 80030e8:	6b9b      	ldr	r3, [r3, #56]	@ 0x38
 80030ea:	881a      	ldrh	r2, [r3, #0]
 80030ec:	68fb      	ldr	r3, [r7, #12]
 80030ee:	681b      	ldr	r3, [r3, #0]
 80030f0:	60da      	str	r2, [r3, #12]
        hspi->pTxBuffPtr += sizeof(uint16_t);
 80030f2:	68fb      	ldr	r3, [r7, #12]
 80030f4:	6b9b      	ldr	r3, [r3, #56]	@ 0x38
 80030f6:	1c9a      	adds	r2, r3, #2
 80030f8:	68fb      	ldr	r3, [r7, #12]
 80030fa:	639a      	str	r2, [r3, #56]	@ 0x38
        hspi->TxXferCount -= 2U;
 80030fc:	68fb      	ldr	r3, [r7, #12]
 80030fe:	8fdb      	ldrh	r3, [r3, #62]	@ 0x3e
 8003100:	b29b      	uxth	r3, r3
 8003102:	3b02      	subs	r3, #2
 8003104:	b29a      	uxth	r2, r3
 8003106:	68fb      	ldr	r3, [r7, #12]
 8003108:	87da      	strh	r2, [r3, #62]	@ 0x3e
 800310a:	e05c      	b.n	80031c6 <HAL_SPI_Transmit+0x284>
      }
      else
      {
        *((__IO uint8_t *)&hspi->Instance->DR) = (*hspi->pTxBuffPtr);
 800310c:	68fb      	ldr	r3, [r7, #12]
 800310e:	6b9a      	ldr	r2, [r3, #56]	@ 0x38
 8003110:	68fb      	ldr	r3, [r7, #12]
 8003112:	681b      	ldr	r3, [r3, #0]
 8003114:	330c      	adds	r3, #12
 8003116:	7812      	ldrb	r2, [r2, #0]
 8003118:	701a      	strb	r2, [r3, #0]
        hspi->pTxBuffPtr ++;
 800311a:	68fb      	ldr	r3, [r7, #12]
 800311c:	6b9b      	ldr	r3, [r3, #56]	@ 0x38
 800311e:	1c5a      	adds	r2, r3, #1
 8003120:	68fb      	ldr	r3, [r7, #12]
 8003122:	639a      	str	r2, [r3, #56]	@ 0x38
        hspi->TxXferCount--;
 8003124:	68fb      	ldr	r3, [r7, #12]
 8003126:	8fdb      	ldrh	r3, [r3, #62]	@ 0x3e
 8003128:	b29b      	uxth	r3, r3
 800312a:	3b01      	subs	r3, #1
 800312c:	b29a      	uxth	r2, r3
 800312e:	68fb      	ldr	r3, [r7, #12]
 8003130:	87da      	strh	r2, [r3, #62]	@ 0x3e
      }
    }
    while (hspi->TxXferCount > 0U)
 8003132:	e048      	b.n	80031c6 <HAL_SPI_Transmit+0x284>
    {
      /* Wait until TXE flag is set to send data */
      if (__HAL_SPI_GET_FLAG(hspi, SPI_FLAG_TXE))
 8003134:	68fb      	ldr	r3, [r7, #12]
 8003136:	681b      	ldr	r3, [r3, #0]
 8003138:	689b      	ldr	r3, [r3, #8]
 800313a:	f003 0302 	and.w	r3, r3, #2
 800313e:	2b02      	cmp	r3, #2
 8003140:	d12b      	bne.n	800319a <HAL_SPI_Transmit+0x258>
      {
        if (hspi->TxXferCount > 1U)
 8003142:	68fb      	ldr	r3, [r7, #12]
 8003144:	8fdb      	ldrh	r3, [r3, #62]	@ 0x3e
 8003146:	b29b      	uxth	r3, r3
 8003148:	2b01      	cmp	r3, #1
 800314a:	d912      	bls.n	8003172 <HAL_SPI_Transmit+0x230>
        {
          /* write on the data register in packing mode */
          hspi->Instance->DR = *((uint16_t *)hspi->pTxBuffPtr);
 800314c:	68fb      	ldr	r3, [r7, #12]
 800314e:	6b9b      	ldr	r3, [r3, #56]	@ 0x38
 8003150:	881a      	ldrh	r2, [r3, #0]
 8003152:	68fb      	ldr	r3, [r7, #12]
 8003154:	681b      	ldr	r3, [r3, #0]
 8003156:	60da      	str	r2, [r3, #12]
          hspi->pTxBuffPtr += sizeof(uint16_t);
 8003158:	68fb      	ldr	r3, [r7, #12]
 800315a:	6b9b      	ldr	r3, [r3, #56]	@ 0x38
 800315c:	1c9a      	adds	r2, r3, #2
 800315e:	68fb      	ldr	r3, [r7, #12]
 8003160:	639a      	str	r2, [r3, #56]	@ 0x38
          hspi->TxXferCount -= 2U;
 8003162:	68fb      	ldr	r3, [r7, #12]
 8003164:	8fdb      	ldrh	r3, [r3, #62]	@ 0x3e
 8003166:	b29b      	uxth	r3, r3
 8003168:	3b02      	subs	r3, #2
 800316a:	b29a      	uxth	r2, r3
 800316c:	68fb      	ldr	r3, [r7, #12]
 800316e:	87da      	strh	r2, [r3, #62]	@ 0x3e
 8003170:	e029      	b.n	80031c6 <HAL_SPI_Transmit+0x284>
        }
        else
        {
          *((__IO uint8_t *)&hspi->Instance->DR) = (*hspi->pTxBuffPtr);
 8003172:	68fb      	ldr	r3, [r7, #12]
 8003174:	6b9a      	ldr	r2, [r3, #56]	@ 0x38
 8003176:	68fb      	ldr	r3, [r7, #12]
 8003178:	681b      	ldr	r3, [r3, #0]
 800317a:	330c      	adds	r3, #12
 800317c:	7812      	ldrb	r2, [r2, #0]
 800317e:	701a      	strb	r2, [r3, #0]
          hspi->pTxBuffPtr++;
 8003180:	68fb      	ldr	r3, [r7, #12]
 8003182:	6b9b      	ldr	r3, [r3, #56]	@ 0x38
 8003184:	1c5a      	adds	r2, r3, #1
 8003186:	68fb      	ldr	r3, [r7, #12]
 8003188:	639a      	str	r2, [r3, #56]	@ 0x38
          hspi->TxXferCount--;
 800318a:	68fb      	ldr	r3, [r7, #12]
 800318c:	8fdb      	ldrh	r3, [r3, #62]	@ 0x3e
 800318e:	b29b      	uxth	r3, r3
 8003190:	3b01      	subs	r3, #1
 8003192:	b29a      	uxth	r2, r3
 8003194:	68fb      	ldr	r3, [r7, #12]
 8003196:	87da      	strh	r2, [r3, #62]	@ 0x3e
 8003198:	e015      	b.n	80031c6 <HAL_SPI_Transmit+0x284>
        }
      }
      else
      {
        /* Timeout management */
        if ((((HAL_GetTick() - tickstart) >=  Timeout) && (Timeout != HAL_MAX_DELAY)) || (Timeout == 0U))
 800319a:	f7fe fd33 	bl	8001c04 <HAL_GetTick>
 800319e:	4602      	mov	r2, r0
 80031a0:	69bb      	ldr	r3, [r7, #24]
 80031a2:	1ad3      	subs	r3, r2, r3
 80031a4:	683a      	ldr	r2, [r7, #0]
 80031a6:	429a      	cmp	r2, r3
 80031a8:	d803      	bhi.n	80031b2 <HAL_SPI_Transmit+0x270>
 80031aa:	683b      	ldr	r3, [r7, #0]
 80031ac:	f1b3 3fff 	cmp.w	r3, #4294967295
 80031b0:	d102      	bne.n	80031b8 <HAL_SPI_Transmit+0x276>
 80031b2:	683b      	ldr	r3, [r7, #0]
 80031b4:	2b00      	cmp	r3, #0
 80031b6:	d106      	bne.n	80031c6 <HAL_SPI_Transmit+0x284>
        {
          errorcode = HAL_TIMEOUT;
 80031b8:	2303      	movs	r3, #3
 80031ba:	77fb      	strb	r3, [r7, #31]
          hspi->State = HAL_SPI_STATE_READY;
 80031bc:	68fb      	ldr	r3, [r7, #12]
 80031be:	2201      	movs	r2, #1
 80031c0:	f883 205d 	strb.w	r2, [r3, #93]	@ 0x5d
          goto error;
 80031c4:	e029      	b.n	800321a <HAL_SPI_Transmit+0x2d8>
    while (hspi->TxXferCount > 0U)
 80031c6:	68fb      	ldr	r3, [r7, #12]
 80031c8:	8fdb      	ldrh	r3, [r3, #62]	@ 0x3e
 80031ca:	b29b      	uxth	r3, r3
 80031cc:	2b00      	cmp	r3, #0
 80031ce:	d1b1      	bne.n	8003134 <HAL_SPI_Transmit+0x1f2>
    SET_BIT(hspi->Instance->CR1, SPI_CR1_CRCNEXT);
  }
#endif /* USE_SPI_CRC */

  /* Check the end of the transaction */
  if (SPI_EndRxTxTransaction(hspi, Timeout, tickstart) != HAL_OK)
 80031d0:	69ba      	ldr	r2, [r7, #24]
 80031d2:	6839      	ldr	r1, [r7, #0]
 80031d4:	68f8      	ldr	r0, [r7, #12]
 80031d6:	f000 f947 	bl	8003468 <SPI_EndRxTxTransaction>
 80031da:	4603      	mov	r3, r0
 80031dc:	2b00      	cmp	r3, #0
 80031de:	d002      	beq.n	80031e6 <HAL_SPI_Transmit+0x2a4>
  {
    hspi->ErrorCode = HAL_SPI_ERROR_FLAG;
 80031e0:	68fb      	ldr	r3, [r7, #12]
 80031e2:	2220      	movs	r2, #32
 80031e4:	661a      	str	r2, [r3, #96]	@ 0x60
  }

  /* Clear overrun flag in 2 Lines communication mode because received is not read */
  if (hspi->Init.Direction == SPI_DIRECTION_2LINES)
 80031e6:	68fb      	ldr	r3, [r7, #12]
 80031e8:	689b      	ldr	r3, [r3, #8]
 80031ea:	2b00      	cmp	r3, #0
 80031ec:	d10a      	bne.n	8003204 <HAL_SPI_Transmit+0x2c2>
  {
    __HAL_SPI_CLEAR_OVRFLAG(hspi);
 80031ee:	2300      	movs	r3, #0
 80031f0:	613b      	str	r3, [r7, #16]
 80031f2:	68fb      	ldr	r3, [r7, #12]
 80031f4:	681b      	ldr	r3, [r3, #0]
 80031f6:	68db      	ldr	r3, [r3, #12]
 80031f8:	613b      	str	r3, [r7, #16]
 80031fa:	68fb      	ldr	r3, [r7, #12]
 80031fc:	681b      	ldr	r3, [r3, #0]
 80031fe:	689b      	ldr	r3, [r3, #8]
 8003200:	613b      	str	r3, [r7, #16]
 8003202:	693b      	ldr	r3, [r7, #16]
  }

  if (hspi->ErrorCode != HAL_SPI_ERROR_NONE)
 8003204:	68fb      	ldr	r3, [r7, #12]
 8003206:	6e1b      	ldr	r3, [r3, #96]	@ 0x60
 8003208:	2b00      	cmp	r3, #0
 800320a:	d002      	beq.n	8003212 <HAL_SPI_Transmit+0x2d0>
  {
    errorcode = HAL_ERROR;
 800320c:	2301      	movs	r3, #1
 800320e:	77fb      	strb	r3, [r7, #31]
 8003210:	e003      	b.n	800321a <HAL_SPI_Transmit+0x2d8>
  }
  else
  {
    hspi->State = HAL_SPI_STATE_READY;
 8003212:	68fb      	ldr	r3, [r7, #12]
 8003214:	2201      	movs	r2, #1
 8003216:	f883 205d 	strb.w	r2, [r3, #93]	@ 0x5d
  }

error:
  /* Process Unlocked */
  __HAL_UNLOCK(hspi);
 800321a:	68fb      	ldr	r3, [r7, #12]
 800321c:	2200      	movs	r2, #0
 800321e:	f883 205c 	strb.w	r2, [r3, #92]	@ 0x5c
  return errorcode;
 8003222:	7ffb      	ldrb	r3, [r7, #31]
}
 8003224:	4618      	mov	r0, r3
 8003226:	3720      	adds	r7, #32
 8003228:	46bd      	mov	sp, r7
 800322a:	bd80      	pop	{r7, pc}

0800322c <SPI_WaitFlagStateUntilTimeout>:
  * @param  Tickstart tick start value
  * @retval HAL status
  */
static HAL_StatusTypeDef SPI_WaitFlagStateUntilTimeout(SPI_HandleTypeDef *hspi, uint32_t Flag, FlagStatus State,
                                                       uint32_t Timeout, uint32_t Tickstart)
{
 800322c:	b580      	push	{r7, lr}
 800322e:	b088      	sub	sp, #32
 8003230:	af00      	add	r7, sp, #0
 8003232:	60f8      	str	r0, [r7, #12]
 8003234:	60b9      	str	r1, [r7, #8]
 8003236:	603b      	str	r3, [r7, #0]
 8003238:	4613      	mov	r3, r2
 800323a:	71fb      	strb	r3, [r7, #7]
  __IO uint32_t count;
  uint32_t tmp_timeout;
  uint32_t tmp_tickstart;

  /* Adjust Timeout value  in case of end of transfer */
  tmp_timeout   = Timeout - (HAL_GetTick() - Tickstart);
 800323c:	f7fe fce2 	bl	8001c04 <HAL_GetTick>
 8003240:	4602      	mov	r2, r0
 8003242:	6abb      	ldr	r3, [r7, #40]	@ 0x28
 8003244:	1a9b      	subs	r3, r3, r2
 8003246:	683a      	ldr	r2, [r7, #0]
 8003248:	4413      	add	r3, r2
 800324a:	61fb      	str	r3, [r7, #28]
  tmp_tickstart = HAL_GetTick();
 800324c:	f7fe fcda 	bl	8001c04 <HAL_GetTick>
 8003250:	61b8      	str	r0, [r7, #24]

  /* Calculate Timeout based on a software loop to avoid blocking issue if Systick is disabled */
  count = tmp_timeout * ((SystemCoreClock * 32U) >> 20U);
 8003252:	4b39      	ldr	r3, [pc, #228]	@ (8003338 <SPI_WaitFlagStateUntilTimeout+0x10c>)
 8003254:	681b      	ldr	r3, [r3, #0]
 8003256:	015b      	lsls	r3, r3, #5
 8003258:	0d1b      	lsrs	r3, r3, #20
 800325a:	69fa      	ldr	r2, [r7, #28]
 800325c:	fb02 f303 	mul.w	r3, r2, r3
 8003260:	617b      	str	r3, [r7, #20]

  while ((__HAL_SPI_GET_FLAG(hspi, Flag) ? SET : RESET) != State)
 8003262:	e054      	b.n	800330e <SPI_WaitFlagStateUntilTimeout+0xe2>
  {
    if (Timeout != HAL_MAX_DELAY)
 8003264:	683b      	ldr	r3, [r7, #0]
 8003266:	f1b3 3fff 	cmp.w	r3, #4294967295
 800326a:	d050      	beq.n	800330e <SPI_WaitFlagStateUntilTimeout+0xe2>
    {
      if (((HAL_GetTick() - tmp_tickstart) >= tmp_timeout) || (tmp_timeout == 0U))
 800326c:	f7fe fcca 	bl	8001c04 <HAL_GetTick>
 8003270:	4602      	mov	r2, r0
 8003272:	69bb      	ldr	r3, [r7, #24]
 8003274:	1ad3      	subs	r3, r2, r3
 8003276:	69fa      	ldr	r2, [r7, #28]
 8003278:	429a      	cmp	r2, r3
 800327a:	d902      	bls.n	8003282 <SPI_WaitFlagStateUntilTimeout+0x56>
 800327c:	69fb      	ldr	r3, [r7, #28]
 800327e:	2b00      	cmp	r3, #0
 8003280:	d13d      	bne.n	80032fe <SPI_WaitFlagStateUntilTimeout+0xd2>
        /* Disable the SPI and reset the CRC: the CRC value should be cleared
           on both master and slave sides in order to resynchronize the master
           and slave for their respective CRC calculation */

        /* Disable TXE, RXNE and ERR interrupts for the interrupt process */
        __HAL_SPI_DISABLE_IT(hspi, (SPI_IT_TXE | SPI_IT_RXNE | SPI_IT_ERR));
 8003282:	68fb      	ldr	r3, [r7, #12]
 8003284:	681b      	ldr	r3, [r3, #0]
 8003286:	685a      	ldr	r2, [r3, #4]
 8003288:	68fb      	ldr	r3, [r7, #12]
 800328a:	681b      	ldr	r3, [r3, #0]
 800328c:	f022 02e0 	bic.w	r2, r2, #224	@ 0xe0
 8003290:	605a      	str	r2, [r3, #4]

        if ((hspi->Init.Mode == SPI_MODE_MASTER) && ((hspi->Init.Direction == SPI_DIRECTION_1LINE)
 8003292:	68fb      	ldr	r3, [r7, #12]
 8003294:	685b      	ldr	r3, [r3, #4]
 8003296:	f5b3 7f82 	cmp.w	r3, #260	@ 0x104
 800329a:	d111      	bne.n	80032c0 <SPI_WaitFlagStateUntilTimeout+0x94>
 800329c:	68fb      	ldr	r3, [r7, #12]
 800329e:	689b      	ldr	r3, [r3, #8]
 80032a0:	f5b3 4f00 	cmp.w	r3, #32768	@ 0x8000
 80032a4:	d004      	beq.n	80032b0 <SPI_WaitFlagStateUntilTimeout+0x84>
                                                     || (hspi->Init.Direction == SPI_DIRECTION_2LINES_RXONLY)))
 80032a6:	68fb      	ldr	r3, [r7, #12]
 80032a8:	689b      	ldr	r3, [r3, #8]
 80032aa:	f5b3 6f80 	cmp.w	r3, #1024	@ 0x400
 80032ae:	d107      	bne.n	80032c0 <SPI_WaitFlagStateUntilTimeout+0x94>
        {
          /* Disable SPI peripheral */
          __HAL_SPI_DISABLE(hspi);
 80032b0:	68fb      	ldr	r3, [r7, #12]
 80032b2:	681b      	ldr	r3, [r3, #0]
 80032b4:	681a      	ldr	r2, [r3, #0]
 80032b6:	68fb      	ldr	r3, [r7, #12]
 80032b8:	681b      	ldr	r3, [r3, #0]
 80032ba:	f022 0240 	bic.w	r2, r2, #64	@ 0x40
 80032be:	601a      	str	r2, [r3, #0]
        }

        /* Reset CRC Calculation */
        if (hspi->Init.CRCCalculation == SPI_CRCCALCULATION_ENABLE)
 80032c0:	68fb      	ldr	r3, [r7, #12]
 80032c2:	6a9b      	ldr	r3, [r3, #40]	@ 0x28
 80032c4:	f5b3 5f00 	cmp.w	r3, #8192	@ 0x2000
 80032c8:	d10f      	bne.n	80032ea <SPI_WaitFlagStateUntilTimeout+0xbe>
        {
          SPI_RESET_CRC(hspi);
 80032ca:	68fb      	ldr	r3, [r7, #12]
 80032cc:	681b      	ldr	r3, [r3, #0]
 80032ce:	681a      	ldr	r2, [r3, #0]
 80032d0:	68fb      	ldr	r3, [r7, #12]
 80032d2:	681b      	ldr	r3, [r3, #0]
 80032d4:	f422 5200 	bic.w	r2, r2, #8192	@ 0x2000
 80032d8:	601a      	str	r2, [r3, #0]
 80032da:	68fb      	ldr	r3, [r7, #12]
 80032dc:	681b      	ldr	r3, [r3, #0]
 80032de:	681a      	ldr	r2, [r3, #0]
 80032e0:	68fb      	ldr	r3, [r7, #12]
 80032e2:	681b      	ldr	r3, [r3, #0]
 80032e4:	f442 5200 	orr.w	r2, r2, #8192	@ 0x2000
 80032e8:	601a      	str	r2, [r3, #0]
        }

        hspi->State = HAL_SPI_STATE_READY;
 80032ea:	68fb      	ldr	r3, [r7, #12]
 80032ec:	2201      	movs	r2, #1
 80032ee:	f883 205d 	strb.w	r2, [r3, #93]	@ 0x5d

        /* Process Unlocked */
        __HAL_UNLOCK(hspi);
 80032f2:	68fb      	ldr	r3, [r7, #12]
 80032f4:	2200      	movs	r2, #0
 80032f6:	f883 205c 	strb.w	r2, [r3, #92]	@ 0x5c

        return HAL_TIMEOUT;
 80032fa:	2303      	movs	r3, #3
 80032fc:	e017      	b.n	800332e <SPI_WaitFlagStateUntilTimeout+0x102>
      }
      /* If Systick is disabled or not incremented, deactivate timeout to go in disable loop procedure */
      if (count == 0U)
 80032fe:	697b      	ldr	r3, [r7, #20]
 8003300:	2b00      	cmp	r3, #0
 8003302:	d101      	bne.n	8003308 <SPI_WaitFlagStateUntilTimeout+0xdc>
      {
        tmp_timeout = 0U;
 8003304:	2300      	movs	r3, #0
 8003306:	61fb      	str	r3, [r7, #28]
      }
      count--;
 8003308:	697b      	ldr	r3, [r7, #20]
 800330a:	3b01      	subs	r3, #1
 800330c:	617b      	str	r3, [r7, #20]
  while ((__HAL_SPI_GET_FLAG(hspi, Flag) ? SET : RESET) != State)
 800330e:	68fb      	ldr	r3, [r7, #12]
 8003310:	681b      	ldr	r3, [r3, #0]
 8003312:	689a      	ldr	r2, [r3, #8]
 8003314:	68bb      	ldr	r3, [r7, #8]
 8003316:	4013      	ands	r3, r2
 8003318:	68ba      	ldr	r2, [r7, #8]
 800331a:	429a      	cmp	r2, r3
 800331c:	bf0c      	ite	eq
 800331e:	2301      	moveq	r3, #1
 8003320:	2300      	movne	r3, #0
 8003322:	b2db      	uxtb	r3, r3
 8003324:	461a      	mov	r2, r3
 8003326:	79fb      	ldrb	r3, [r7, #7]
 8003328:	429a      	cmp	r2, r3
 800332a:	d19b      	bne.n	8003264 <SPI_WaitFlagStateUntilTimeout+0x38>
    }
  }

  return HAL_OK;
 800332c:	2300      	movs	r3, #0
}
 800332e:	4618      	mov	r0, r3
 8003330:	3720      	adds	r7, #32
 8003332:	46bd      	mov	sp, r7
 8003334:	bd80      	pop	{r7, pc}
 8003336:	bf00      	nop
 8003338:	2000c8a0 	.word	0x2000c8a0

0800333c <SPI_WaitFifoStateUntilTimeout>:
  * @param  Tickstart tick start value
  * @retval HAL status
  */
static HAL_StatusTypeDef SPI_WaitFifoStateUntilTimeout(SPI_HandleTypeDef *hspi, uint32_t Fifo, uint32_t State,
                                                       uint32_t Timeout, uint32_t Tickstart)
{
 800333c:	b580      	push	{r7, lr}
 800333e:	b08a      	sub	sp, #40	@ 0x28
 8003340:	af00      	add	r7, sp, #0
 8003342:	60f8      	str	r0, [r7, #12]
 8003344:	60b9      	str	r1, [r7, #8]
 8003346:	607a      	str	r2, [r7, #4]
 8003348:	603b      	str	r3, [r7, #0]
  __IO uint32_t count;
  uint32_t tmp_timeout;
  uint32_t tmp_tickstart;
  __IO uint8_t  *ptmpreg8;
  __IO uint8_t  tmpreg8 = 0;
 800334a:	2300      	movs	r3, #0
 800334c:	75fb      	strb	r3, [r7, #23]

  /* Adjust Timeout value  in case of end of transfer */
  tmp_timeout = Timeout - (HAL_GetTick() - Tickstart);
 800334e:	f7fe fc59 	bl	8001c04 <HAL_GetTick>
 8003352:	4602      	mov	r2, r0
 8003354:	6b3b      	ldr	r3, [r7, #48]	@ 0x30
 8003356:	1a9b      	subs	r3, r3, r2
 8003358:	683a      	ldr	r2, [r7, #0]
 800335a:	4413      	add	r3, r2
 800335c:	627b      	str	r3, [r7, #36]	@ 0x24
  tmp_tickstart = HAL_GetTick();
 800335e:	f7fe fc51 	bl	8001c04 <HAL_GetTick>
 8003362:	6238      	str	r0, [r7, #32]

  /* Initialize the 8bit temporary pointer */
  ptmpreg8 = (__IO uint8_t *)&hspi->Instance->DR;
 8003364:	68fb      	ldr	r3, [r7, #12]
 8003366:	681b      	ldr	r3, [r3, #0]
 8003368:	330c      	adds	r3, #12
 800336a:	61fb      	str	r3, [r7, #28]

  /* Calculate Timeout based on a software loop to avoid blocking issue if Systick is disabled */
  count = tmp_timeout * ((SystemCoreClock * 35U) >> 20U);
 800336c:	4b3d      	ldr	r3, [pc, #244]	@ (8003464 <SPI_WaitFifoStateUntilTimeout+0x128>)
 800336e:	681a      	ldr	r2, [r3, #0]
 8003370:	4613      	mov	r3, r2
 8003372:	009b      	lsls	r3, r3, #2
 8003374:	4413      	add	r3, r2
 8003376:	00da      	lsls	r2, r3, #3
 8003378:	1ad3      	subs	r3, r2, r3
 800337a:	0d1b      	lsrs	r3, r3, #20
 800337c:	6a7a      	ldr	r2, [r7, #36]	@ 0x24
 800337e:	fb02 f303 	mul.w	r3, r2, r3
 8003382:	61bb      	str	r3, [r7, #24]

  while ((hspi->Instance->SR & Fifo) != State)
 8003384:	e060      	b.n	8003448 <SPI_WaitFifoStateUntilTimeout+0x10c>
  {
    if ((Fifo == SPI_SR_FRLVL) && (State == SPI_FRLVL_EMPTY))
 8003386:	68bb      	ldr	r3, [r7, #8]
 8003388:	f5b3 6fc0 	cmp.w	r3, #1536	@ 0x600
 800338c:	d107      	bne.n	800339e <SPI_WaitFifoStateUntilTimeout+0x62>
 800338e:	687b      	ldr	r3, [r7, #4]
 8003390:	2b00      	cmp	r3, #0
 8003392:	d104      	bne.n	800339e <SPI_WaitFifoStateUntilTimeout+0x62>
    {
      /* Flush Data Register by a blank read */
      tmpreg8 = *ptmpreg8;
 8003394:	69fb      	ldr	r3, [r7, #28]
 8003396:	781b      	ldrb	r3, [r3, #0]
 8003398:	b2db      	uxtb	r3, r3
 800339a:	75fb      	strb	r3, [r7, #23]
      /* To avoid GCC warning */
      UNUSED(tmpreg8);
 800339c:	7dfb      	ldrb	r3, [r7, #23]
    }

    if (Timeout != HAL_MAX_DELAY)
 800339e:	683b      	ldr	r3, [r7, #0]
 80033a0:	f1b3 3fff 	cmp.w	r3, #4294967295
 80033a4:	d050      	beq.n	8003448 <SPI_WaitFifoStateUntilTimeout+0x10c>
    {
      if (((HAL_GetTick() - tmp_tickstart) >= tmp_timeout) || (tmp_timeout == 0U))
 80033a6:	f7fe fc2d 	bl	8001c04 <HAL_GetTick>
 80033aa:	4602      	mov	r2, r0
 80033ac:	6a3b      	ldr	r3, [r7, #32]
 80033ae:	1ad3      	subs	r3, r2, r3
 80033b0:	6a7a      	ldr	r2, [r7, #36]	@ 0x24
 80033b2:	429a      	cmp	r2, r3
 80033b4:	d902      	bls.n	80033bc <SPI_WaitFifoStateUntilTimeout+0x80>
 80033b6:	6a7b      	ldr	r3, [r7, #36]	@ 0x24
 80033b8:	2b00      	cmp	r3, #0
 80033ba:	d13d      	bne.n	8003438 <SPI_WaitFifoStateUntilTimeout+0xfc>
        /* Disable the SPI and reset the CRC: the CRC value should be cleared
           on both master and slave sides in order to resynchronize the master
           and slave for their respective CRC calculation */

        /* Disable TXE, RXNE and ERR interrupts for the interrupt process */
        __HAL_SPI_DISABLE_IT(hspi, (SPI_IT_TXE | SPI_IT_RXNE | SPI_IT_ERR));
 80033bc:	68fb      	ldr	r3, [r7, #12]
 80033be:	681b      	ldr	r3, [r3, #0]
 80033c0:	685a      	ldr	r2, [r3, #4]
 80033c2:	68fb      	ldr	r3, [r7, #12]
 80033c4:	681b      	ldr	r3, [r3, #0]
 80033c6:	f022 02e0 	bic.w	r2, r2, #224	@ 0xe0
 80033ca:	605a      	str	r2, [r3, #4]

        if ((hspi->Init.Mode == SPI_MODE_MASTER) && ((hspi->Init.Direction == SPI_DIRECTION_1LINE)
 80033cc:	68fb      	ldr	r3, [r7, #12]
 80033ce:	685b      	ldr	r3, [r3, #4]
 80033d0:	f5b3 7f82 	cmp.w	r3, #260	@ 0x104
 80033d4:	d111      	bne.n	80033fa <SPI_WaitFifoStateUntilTimeout+0xbe>
 80033d6:	68fb      	ldr	r3, [r7, #12]
 80033d8:	689b      	ldr	r3, [r3, #8]
 80033da:	f5b3 4f00 	cmp.w	r3, #32768	@ 0x8000
 80033de:	d004      	beq.n	80033ea <SPI_WaitFifoStateUntilTimeout+0xae>
                                                     || (hspi->Init.Direction == SPI_DIRECTION_2LINES_RXONLY)))
 80033e0:	68fb      	ldr	r3, [r7, #12]
 80033e2:	689b      	ldr	r3, [r3, #8]
 80033e4:	f5b3 6f80 	cmp.w	r3, #1024	@ 0x400
 80033e8:	d107      	bne.n	80033fa <SPI_WaitFifoStateUntilTimeout+0xbe>
        {
          /* Disable SPI peripheral */
          __HAL_SPI_DISABLE(hspi);
 80033ea:	68fb      	ldr	r3, [r7, #12]
 80033ec:	681b      	ldr	r3, [r3, #0]
 80033ee:	681a      	ldr	r2, [r3, #0]
 80033f0:	68fb      	ldr	r3, [r7, #12]
 80033f2:	681b      	ldr	r3, [r3, #0]
 80033f4:	f022 0240 	bic.w	r2, r2, #64	@ 0x40
 80033f8:	601a      	str	r2, [r3, #0]
        }

        /* Reset CRC Calculation */
        if (hspi->Init.CRCCalculation == SPI_CRCCALCULATION_ENABLE)
 80033fa:	68fb      	ldr	r3, [r7, #12]
 80033fc:	6a9b      	ldr	r3, [r3, #40]	@ 0x28
 80033fe:	f5b3 5f00 	cmp.w	r3, #8192	@ 0x2000
 8003402:	d10f      	bne.n	8003424 <SPI_WaitFifoStateUntilTimeout+0xe8>
        {
          SPI_RESET_CRC(hspi);
 8003404:	68fb      	ldr	r3, [r7, #12]
 8003406:	681b      	ldr	r3, [r3, #0]
 8003408:	681a      	ldr	r2, [r3, #0]
 800340a:	68fb      	ldr	r3, [r7, #12]
 800340c:	681b      	ldr	r3, [r3, #0]
 800340e:	f422 5200 	bic.w	r2, r2, #8192	@ 0x2000
 8003412:	601a      	str	r2, [r3, #0]
 8003414:	68fb      	ldr	r3, [r7, #12]
 8003416:	681b      	ldr	r3, [r3, #0]
 8003418:	681a      	ldr	r2, [r3, #0]
 800341a:	68fb      	ldr	r3, [r7, #12]
 800341c:	681b      	ldr	r3, [r3, #0]
 800341e:	f442 5200 	orr.w	r2, r2, #8192	@ 0x2000
 8003422:	601a      	str	r2, [r3, #0]
        }

        hspi->State = HAL_SPI_STATE_READY;
 8003424:	68fb      	ldr	r3, [r7, #12]
 8003426:	2201      	movs	r2, #1
 8003428:	f883 205d 	strb.w	r2, [r3, #93]	@ 0x5d

        /* Process Unlocked */
        __HAL_UNLOCK(hspi);
 800342c:	68fb      	ldr	r3, [r7, #12]
 800342e:	2200      	movs	r2, #0
 8003430:	f883 205c 	strb.w	r2, [r3, #92]	@ 0x5c

        return HAL_TIMEOUT;
 8003434:	2303      	movs	r3, #3
 8003436:	e010      	b.n	800345a <SPI_WaitFifoStateUntilTimeout+0x11e>
      }
      /* If Systick is disabled or not incremented, deactivate timeout to go in disable loop procedure */
      if (count == 0U)
 8003438:	69bb      	ldr	r3, [r7, #24]
 800343a:	2b00      	cmp	r3, #0
 800343c:	d101      	bne.n	8003442 <SPI_WaitFifoStateUntilTimeout+0x106>
      {
        tmp_timeout = 0U;
 800343e:	2300      	movs	r3, #0
 8003440:	627b      	str	r3, [r7, #36]	@ 0x24
      }
      count--;
 8003442:	69bb      	ldr	r3, [r7, #24]
 8003444:	3b01      	subs	r3, #1
 8003446:	61bb      	str	r3, [r7, #24]
  while ((hspi->Instance->SR & Fifo) != State)
 8003448:	68fb      	ldr	r3, [r7, #12]
 800344a:	681b      	ldr	r3, [r3, #0]
 800344c:	689a      	ldr	r2, [r3, #8]
 800344e:	68bb      	ldr	r3, [r7, #8]
 8003450:	4013      	ands	r3, r2
 8003452:	687a      	ldr	r2, [r7, #4]
 8003454:	429a      	cmp	r2, r3
 8003456:	d196      	bne.n	8003386 <SPI_WaitFifoStateUntilTimeout+0x4a>
    }
  }

  return HAL_OK;
 8003458:	2300      	movs	r3, #0
}
 800345a:	4618      	mov	r0, r3
 800345c:	3728      	adds	r7, #40	@ 0x28
 800345e:	46bd      	mov	sp, r7
 8003460:	bd80      	pop	{r7, pc}
 8003462:	bf00      	nop
 8003464:	2000c8a0 	.word	0x2000c8a0

08003468 <SPI_EndRxTxTransaction>:
  * @param  Timeout Timeout duration
  * @param  Tickstart tick start value
  * @retval HAL status
  */
static HAL_StatusTypeDef SPI_EndRxTxTransaction(SPI_HandleTypeDef *hspi, uint32_t Timeout, uint32_t Tickstart)
{
 8003468:	b580      	push	{r7, lr}
 800346a:	b086      	sub	sp, #24
 800346c:	af02      	add	r7, sp, #8
 800346e:	60f8      	str	r0, [r7, #12]
 8003470:	60b9      	str	r1, [r7, #8]
 8003472:	607a      	str	r2, [r7, #4]
  /* Control if the TX fifo is empty */
  if (SPI_WaitFifoStateUntilTimeout(hspi, SPI_FLAG_FTLVL, SPI_FTLVL_EMPTY, Timeout, Tickstart) != HAL_OK)
 8003474:	687b      	ldr	r3, [r7, #4]
 8003476:	9300      	str	r3, [sp, #0]
 8003478:	68bb      	ldr	r3, [r7, #8]
 800347a:	2200      	movs	r2, #0
 800347c:	f44f 51c0 	mov.w	r1, #6144	@ 0x1800
 8003480:	68f8      	ldr	r0, [r7, #12]
 8003482:	f7ff ff5b 	bl	800333c <SPI_WaitFifoStateUntilTimeout>
 8003486:	4603      	mov	r3, r0
 8003488:	2b00      	cmp	r3, #0
 800348a:	d007      	beq.n	800349c <SPI_EndRxTxTransaction+0x34>
  {
    SET_BIT(hspi->ErrorCode, HAL_SPI_ERROR_FLAG);
 800348c:	68fb      	ldr	r3, [r7, #12]
 800348e:	6e1b      	ldr	r3, [r3, #96]	@ 0x60
 8003490:	f043 0220 	orr.w	r2, r3, #32
 8003494:	68fb      	ldr	r3, [r7, #12]
 8003496:	661a      	str	r2, [r3, #96]	@ 0x60
    return HAL_TIMEOUT;
 8003498:	2303      	movs	r3, #3
 800349a:	e027      	b.n	80034ec <SPI_EndRxTxTransaction+0x84>
  }

  /* Control the BSY flag */
  if (SPI_WaitFlagStateUntilTimeout(hspi, SPI_FLAG_BSY, RESET, Timeout, Tickstart) != HAL_OK)
 800349c:	687b      	ldr	r3, [r7, #4]
 800349e:	9300      	str	r3, [sp, #0]
 80034a0:	68bb      	ldr	r3, [r7, #8]
 80034a2:	2200      	movs	r2, #0
 80034a4:	2180      	movs	r1, #128	@ 0x80
 80034a6:	68f8      	ldr	r0, [r7, #12]
 80034a8:	f7ff fec0 	bl	800322c <SPI_WaitFlagStateUntilTimeout>
 80034ac:	4603      	mov	r3, r0
 80034ae:	2b00      	cmp	r3, #0
 80034b0:	d007      	beq.n	80034c2 <SPI_EndRxTxTransaction+0x5a>
  {
    SET_BIT(hspi->ErrorCode, HAL_SPI_ERROR_FLAG);
 80034b2:	68fb      	ldr	r3, [r7, #12]
 80034b4:	6e1b      	ldr	r3, [r3, #96]	@ 0x60
 80034b6:	f043 0220 	orr.w	r2, r3, #32
 80034ba:	68fb      	ldr	r3, [r7, #12]
 80034bc:	661a      	str	r2, [r3, #96]	@ 0x60
    return HAL_TIMEOUT;
 80034be:	2303      	movs	r3, #3
 80034c0:	e014      	b.n	80034ec <SPI_EndRxTxTransaction+0x84>
  }

  /* Control if the RX fifo is empty */
  if (SPI_WaitFifoStateUntilTimeout(hspi, SPI_FLAG_FRLVL, SPI_FRLVL_EMPTY, Timeout, Tickstart) != HAL_OK)
 80034c2:	687b      	ldr	r3, [r7, #4]
 80034c4:	9300      	str	r3, [sp, #0]
 80034c6:	68bb      	ldr	r3, [r7, #8]
 80034c8:	2200      	movs	r2, #0
 80034ca:	f44f 61c0 	mov.w	r1, #1536	@ 0x600
 80034ce:	68f8      	ldr	r0, [r7, #12]
 80034d0:	f7ff ff34 	bl	800333c <SPI_WaitFifoStateUntilTimeout>
 80034d4:	4603      	mov	r3, r0
 80034d6:	2b00      	cmp	r3, #0
 80034d8:	d007      	beq.n	80034ea <SPI_EndRxTxTransaction+0x82>
  {
    SET_BIT(hspi->ErrorCode, HAL_SPI_ERROR_FLAG);
 80034da:	68fb      	ldr	r3, [r7, #12]
 80034dc:	6e1b      	ldr	r3, [r3, #96]	@ 0x60
 80034de:	f043 0220 	orr.w	r2, r3, #32
 80034e2:	68fb      	ldr	r3, [r7, #12]
 80034e4:	661a      	str	r2, [r3, #96]	@ 0x60
    return HAL_TIMEOUT;
 80034e6:	2303      	movs	r3, #3
 80034e8:	e000      	b.n	80034ec <SPI_EndRxTxTransaction+0x84>
  }

  return HAL_OK;
 80034ea:	2300      	movs	r3, #0
}
 80034ec:	4618      	mov	r0, r3
 80034ee:	3710      	adds	r7, #16
 80034f0:	46bd      	mov	sp, r7
 80034f2:	bd80      	pop	{r7, pc}

080034f4 <pow>:
 80034f4:	b5f8      	push	{r3, r4, r5, r6, r7, lr}
 80034f6:	ed2d 8b02 	vpush	{d8}
 80034fa:	eeb0 8a40 	vmov.f32	s16, s0
 80034fe:	eef0 8a60 	vmov.f32	s17, s1
 8003502:	ec55 4b11 	vmov	r4, r5, d1
 8003506:	f000 f977 	bl	80037f8 <__ieee754_pow>
 800350a:	4622      	mov	r2, r4
 800350c:	462b      	mov	r3, r5
 800350e:	4620      	mov	r0, r4
 8003510:	4629      	mov	r1, r5
 8003512:	ec57 6b10 	vmov	r6, r7, d0
 8003516:	f7fd fab1 	bl	8000a7c <__aeabi_dcmpun>
 800351a:	2800      	cmp	r0, #0
 800351c:	d13b      	bne.n	8003596 <pow+0xa2>
 800351e:	ec51 0b18 	vmov	r0, r1, d8
 8003522:	2200      	movs	r2, #0
 8003524:	2300      	movs	r3, #0
 8003526:	f7fd fa77 	bl	8000a18 <__aeabi_dcmpeq>
 800352a:	b1b8      	cbz	r0, 800355c <pow+0x68>
 800352c:	2200      	movs	r2, #0
 800352e:	2300      	movs	r3, #0
 8003530:	4620      	mov	r0, r4
 8003532:	4629      	mov	r1, r5
 8003534:	f7fd fa70 	bl	8000a18 <__aeabi_dcmpeq>
 8003538:	2800      	cmp	r0, #0
 800353a:	d146      	bne.n	80035ca <pow+0xd6>
 800353c:	ec45 4b10 	vmov	d0, r4, r5
 8003540:	f000 f874 	bl	800362c <finite>
 8003544:	b338      	cbz	r0, 8003596 <pow+0xa2>
 8003546:	2200      	movs	r2, #0
 8003548:	2300      	movs	r3, #0
 800354a:	4620      	mov	r0, r4
 800354c:	4629      	mov	r1, r5
 800354e:	f7fd fa6d 	bl	8000a2c <__aeabi_dcmplt>
 8003552:	b300      	cbz	r0, 8003596 <pow+0xa2>
 8003554:	f000 ff60 	bl	8004418 <__errno>
 8003558:	2322      	movs	r3, #34	@ 0x22
 800355a:	e01b      	b.n	8003594 <pow+0xa0>
 800355c:	ec47 6b10 	vmov	d0, r6, r7
 8003560:	f000 f864 	bl	800362c <finite>
 8003564:	b9e0      	cbnz	r0, 80035a0 <pow+0xac>
 8003566:	eeb0 0a48 	vmov.f32	s0, s16
 800356a:	eef0 0a68 	vmov.f32	s1, s17
 800356e:	f000 f85d 	bl	800362c <finite>
 8003572:	b1a8      	cbz	r0, 80035a0 <pow+0xac>
 8003574:	ec45 4b10 	vmov	d0, r4, r5
 8003578:	f000 f858 	bl	800362c <finite>
 800357c:	b180      	cbz	r0, 80035a0 <pow+0xac>
 800357e:	4632      	mov	r2, r6
 8003580:	463b      	mov	r3, r7
 8003582:	4630      	mov	r0, r6
 8003584:	4639      	mov	r1, r7
 8003586:	f7fd fa79 	bl	8000a7c <__aeabi_dcmpun>
 800358a:	2800      	cmp	r0, #0
 800358c:	d0e2      	beq.n	8003554 <pow+0x60>
 800358e:	f000 ff43 	bl	8004418 <__errno>
 8003592:	2321      	movs	r3, #33	@ 0x21
 8003594:	6003      	str	r3, [r0, #0]
 8003596:	ecbd 8b02 	vpop	{d8}
 800359a:	ec47 6b10 	vmov	d0, r6, r7
 800359e:	bdf8      	pop	{r3, r4, r5, r6, r7, pc}
 80035a0:	2200      	movs	r2, #0
 80035a2:	2300      	movs	r3, #0
 80035a4:	4630      	mov	r0, r6
 80035a6:	4639      	mov	r1, r7
 80035a8:	f7fd fa36 	bl	8000a18 <__aeabi_dcmpeq>
 80035ac:	2800      	cmp	r0, #0
 80035ae:	d0f2      	beq.n	8003596 <pow+0xa2>
 80035b0:	eeb0 0a48 	vmov.f32	s0, s16
 80035b4:	eef0 0a68 	vmov.f32	s1, s17
 80035b8:	f000 f838 	bl	800362c <finite>
 80035bc:	2800      	cmp	r0, #0
 80035be:	d0ea      	beq.n	8003596 <pow+0xa2>
 80035c0:	ec45 4b10 	vmov	d0, r4, r5
 80035c4:	f000 f832 	bl	800362c <finite>
 80035c8:	e7c3      	b.n	8003552 <pow+0x5e>
 80035ca:	4f01      	ldr	r7, [pc, #4]	@ (80035d0 <pow+0xdc>)
 80035cc:	2600      	movs	r6, #0
 80035ce:	e7e2      	b.n	8003596 <pow+0xa2>
 80035d0:	3ff00000 	.word	0x3ff00000

080035d4 <sqrt>:
 80035d4:	b538      	push	{r3, r4, r5, lr}
 80035d6:	ed2d 8b02 	vpush	{d8}
 80035da:	ec55 4b10 	vmov	r4, r5, d0
 80035de:	f000 f831 	bl	8003644 <__ieee754_sqrt>
 80035e2:	4622      	mov	r2, r4
 80035e4:	462b      	mov	r3, r5
 80035e6:	4620      	mov	r0, r4
 80035e8:	4629      	mov	r1, r5
 80035ea:	eeb0 8a40 	vmov.f32	s16, s0
 80035ee:	eef0 8a60 	vmov.f32	s17, s1
 80035f2:	f7fd fa43 	bl	8000a7c <__aeabi_dcmpun>
 80035f6:	b990      	cbnz	r0, 800361e <sqrt+0x4a>
 80035f8:	2200      	movs	r2, #0
 80035fa:	2300      	movs	r3, #0
 80035fc:	4620      	mov	r0, r4
 80035fe:	4629      	mov	r1, r5
 8003600:	f7fd fa14 	bl	8000a2c <__aeabi_dcmplt>
 8003604:	b158      	cbz	r0, 800361e <sqrt+0x4a>
 8003606:	f000 ff07 	bl	8004418 <__errno>
 800360a:	2321      	movs	r3, #33	@ 0x21
 800360c:	6003      	str	r3, [r0, #0]
 800360e:	2200      	movs	r2, #0
 8003610:	2300      	movs	r3, #0
 8003612:	4610      	mov	r0, r2
 8003614:	4619      	mov	r1, r3
 8003616:	f7fd f8c1 	bl	800079c <__aeabi_ddiv>
 800361a:	ec41 0b18 	vmov	d8, r0, r1
 800361e:	eeb0 0a48 	vmov.f32	s0, s16
 8003622:	eef0 0a68 	vmov.f32	s1, s17
 8003626:	ecbd 8b02 	vpop	{d8}
 800362a:	bd38      	pop	{r3, r4, r5, pc}

0800362c <finite>:
 800362c:	b082      	sub	sp, #8
 800362e:	ed8d 0b00 	vstr	d0, [sp]
 8003632:	9801      	ldr	r0, [sp, #4]
 8003634:	f040 4000 	orr.w	r0, r0, #2147483648	@ 0x80000000
 8003638:	f500 1080 	add.w	r0, r0, #1048576	@ 0x100000
 800363c:	0fc0      	lsrs	r0, r0, #31
 800363e:	b002      	add	sp, #8
 8003640:	4770      	bx	lr
	...

08003644 <__ieee754_sqrt>:
 8003644:	e92d 4ff8 	stmdb	sp!, {r3, r4, r5, r6, r7, r8, r9, sl, fp, lr}
 8003648:	4a68      	ldr	r2, [pc, #416]	@ (80037ec <__ieee754_sqrt+0x1a8>)
 800364a:	ec55 4b10 	vmov	r4, r5, d0
 800364e:	43aa      	bics	r2, r5
 8003650:	462b      	mov	r3, r5
 8003652:	4621      	mov	r1, r4
 8003654:	d110      	bne.n	8003678 <__ieee754_sqrt+0x34>
 8003656:	4622      	mov	r2, r4
 8003658:	4620      	mov	r0, r4
 800365a:	4629      	mov	r1, r5
 800365c:	f7fc ff74 	bl	8000548 <__aeabi_dmul>
 8003660:	4602      	mov	r2, r0
 8003662:	460b      	mov	r3, r1
 8003664:	4620      	mov	r0, r4
 8003666:	4629      	mov	r1, r5
 8003668:	f7fc fdb8 	bl	80001dc <__adddf3>
 800366c:	4604      	mov	r4, r0
 800366e:	460d      	mov	r5, r1
 8003670:	ec45 4b10 	vmov	d0, r4, r5
 8003674:	e8bd 8ff8 	ldmia.w	sp!, {r3, r4, r5, r6, r7, r8, r9, sl, fp, pc}
 8003678:	2d00      	cmp	r5, #0
 800367a:	dc0e      	bgt.n	800369a <__ieee754_sqrt+0x56>
 800367c:	f025 4200 	bic.w	r2, r5, #2147483648	@ 0x80000000
 8003680:	4322      	orrs	r2, r4
 8003682:	d0f5      	beq.n	8003670 <__ieee754_sqrt+0x2c>
 8003684:	b19d      	cbz	r5, 80036ae <__ieee754_sqrt+0x6a>
 8003686:	4622      	mov	r2, r4
 8003688:	4620      	mov	r0, r4
 800368a:	4629      	mov	r1, r5
 800368c:	f7fc fda4 	bl	80001d8 <__aeabi_dsub>
 8003690:	4602      	mov	r2, r0
 8003692:	460b      	mov	r3, r1
 8003694:	f7fd f882 	bl	800079c <__aeabi_ddiv>
 8003698:	e7e8      	b.n	800366c <__ieee754_sqrt+0x28>
 800369a:	152a      	asrs	r2, r5, #20
 800369c:	d115      	bne.n	80036ca <__ieee754_sqrt+0x86>
 800369e:	2000      	movs	r0, #0
 80036a0:	e009      	b.n	80036b6 <__ieee754_sqrt+0x72>
 80036a2:	0acb      	lsrs	r3, r1, #11
 80036a4:	3a15      	subs	r2, #21
 80036a6:	0549      	lsls	r1, r1, #21
 80036a8:	2b00      	cmp	r3, #0
 80036aa:	d0fa      	beq.n	80036a2 <__ieee754_sqrt+0x5e>
 80036ac:	e7f7      	b.n	800369e <__ieee754_sqrt+0x5a>
 80036ae:	462a      	mov	r2, r5
 80036b0:	e7fa      	b.n	80036a8 <__ieee754_sqrt+0x64>
 80036b2:	005b      	lsls	r3, r3, #1
 80036b4:	3001      	adds	r0, #1
 80036b6:	02dc      	lsls	r4, r3, #11
 80036b8:	d5fb      	bpl.n	80036b2 <__ieee754_sqrt+0x6e>
 80036ba:	1e44      	subs	r4, r0, #1
 80036bc:	1b12      	subs	r2, r2, r4
 80036be:	f1c0 0420 	rsb	r4, r0, #32
 80036c2:	fa21 f404 	lsr.w	r4, r1, r4
 80036c6:	4323      	orrs	r3, r4
 80036c8:	4081      	lsls	r1, r0
 80036ca:	f3c3 0313 	ubfx	r3, r3, #0, #20
 80036ce:	f2a2 35ff 	subw	r5, r2, #1023	@ 0x3ff
 80036d2:	f443 1380 	orr.w	r3, r3, #1048576	@ 0x100000
 80036d6:	07d2      	lsls	r2, r2, #31
 80036d8:	bf5c      	itt	pl
 80036da:	005b      	lslpl	r3, r3, #1
 80036dc:	eb03 73d1 	addpl.w	r3, r3, r1, lsr #31
 80036e0:	ea4f 0343 	mov.w	r3, r3, lsl #1
 80036e4:	bf58      	it	pl
 80036e6:	0049      	lslpl	r1, r1, #1
 80036e8:	2600      	movs	r6, #0
 80036ea:	eb03 73d1 	add.w	r3, r3, r1, lsr #31
 80036ee:	106d      	asrs	r5, r5, #1
 80036f0:	0049      	lsls	r1, r1, #1
 80036f2:	2016      	movs	r0, #22
 80036f4:	4632      	mov	r2, r6
 80036f6:	f44f 1400 	mov.w	r4, #2097152	@ 0x200000
 80036fa:	1917      	adds	r7, r2, r4
 80036fc:	429f      	cmp	r7, r3
 80036fe:	bfde      	ittt	le
 8003700:	193a      	addle	r2, r7, r4
 8003702:	1bdb      	suble	r3, r3, r7
 8003704:	1936      	addle	r6, r6, r4
 8003706:	0fcf      	lsrs	r7, r1, #31
 8003708:	3801      	subs	r0, #1
 800370a:	eb07 0343 	add.w	r3, r7, r3, lsl #1
 800370e:	ea4f 0141 	mov.w	r1, r1, lsl #1
 8003712:	ea4f 0454 	mov.w	r4, r4, lsr #1
 8003716:	d1f0      	bne.n	80036fa <__ieee754_sqrt+0xb6>
 8003718:	4604      	mov	r4, r0
 800371a:	2720      	movs	r7, #32
 800371c:	f04f 4c00 	mov.w	ip, #2147483648	@ 0x80000000
 8003720:	429a      	cmp	r2, r3
 8003722:	eb00 0e0c 	add.w	lr, r0, ip
 8003726:	db02      	blt.n	800372e <__ieee754_sqrt+0xea>
 8003728:	d113      	bne.n	8003752 <__ieee754_sqrt+0x10e>
 800372a:	458e      	cmp	lr, r1
 800372c:	d811      	bhi.n	8003752 <__ieee754_sqrt+0x10e>
 800372e:	f1be 0f00 	cmp.w	lr, #0
 8003732:	eb0e 000c 	add.w	r0, lr, ip
 8003736:	da42      	bge.n	80037be <__ieee754_sqrt+0x17a>
 8003738:	2800      	cmp	r0, #0
 800373a:	db40      	blt.n	80037be <__ieee754_sqrt+0x17a>
 800373c:	f102 0801 	add.w	r8, r2, #1
 8003740:	1a9b      	subs	r3, r3, r2
 8003742:	458e      	cmp	lr, r1
 8003744:	bf88      	it	hi
 8003746:	f103 33ff 	addhi.w	r3, r3, #4294967295
 800374a:	eba1 010e 	sub.w	r1, r1, lr
 800374e:	4464      	add	r4, ip
 8003750:	4642      	mov	r2, r8
 8003752:	ea4f 7ed1 	mov.w	lr, r1, lsr #31
 8003756:	3f01      	subs	r7, #1
 8003758:	eb0e 0343 	add.w	r3, lr, r3, lsl #1
 800375c:	ea4f 0141 	mov.w	r1, r1, lsl #1
 8003760:	ea4f 0c5c 	mov.w	ip, ip, lsr #1
 8003764:	d1dc      	bne.n	8003720 <__ieee754_sqrt+0xdc>
 8003766:	4319      	orrs	r1, r3
 8003768:	d01b      	beq.n	80037a2 <__ieee754_sqrt+0x15e>
 800376a:	f8df a084 	ldr.w	sl, [pc, #132]	@ 80037f0 <__ieee754_sqrt+0x1ac>
 800376e:	f8df b084 	ldr.w	fp, [pc, #132]	@ 80037f4 <__ieee754_sqrt+0x1b0>
 8003772:	e9da 0100 	ldrd	r0, r1, [sl]
 8003776:	e9db 2300 	ldrd	r2, r3, [fp]
 800377a:	f7fc fd2d 	bl	80001d8 <__aeabi_dsub>
 800377e:	e9da 8900 	ldrd	r8, r9, [sl]
 8003782:	4602      	mov	r2, r0
 8003784:	460b      	mov	r3, r1
 8003786:	4640      	mov	r0, r8
 8003788:	4649      	mov	r1, r9
 800378a:	f7fd f959 	bl	8000a40 <__aeabi_dcmple>
 800378e:	b140      	cbz	r0, 80037a2 <__ieee754_sqrt+0x15e>
 8003790:	f1b4 3fff 	cmp.w	r4, #4294967295
 8003794:	e9da 0100 	ldrd	r0, r1, [sl]
 8003798:	e9db 2300 	ldrd	r2, r3, [fp]
 800379c:	d111      	bne.n	80037c2 <__ieee754_sqrt+0x17e>
 800379e:	3601      	adds	r6, #1
 80037a0:	463c      	mov	r4, r7
 80037a2:	1072      	asrs	r2, r6, #1
 80037a4:	0863      	lsrs	r3, r4, #1
 80037a6:	07f1      	lsls	r1, r6, #31
 80037a8:	f102 527f 	add.w	r2, r2, #1069547520	@ 0x3fc00000
 80037ac:	f502 1200 	add.w	r2, r2, #2097152	@ 0x200000
 80037b0:	bf48      	it	mi
 80037b2:	f043 4300 	orrmi.w	r3, r3, #2147483648	@ 0x80000000
 80037b6:	eb02 5105 	add.w	r1, r2, r5, lsl #20
 80037ba:	4618      	mov	r0, r3
 80037bc:	e756      	b.n	800366c <__ieee754_sqrt+0x28>
 80037be:	4690      	mov	r8, r2
 80037c0:	e7be      	b.n	8003740 <__ieee754_sqrt+0xfc>
 80037c2:	f7fc fd0b 	bl	80001dc <__adddf3>
 80037c6:	e9da 8900 	ldrd	r8, r9, [sl]
 80037ca:	4602      	mov	r2, r0
 80037cc:	460b      	mov	r3, r1
 80037ce:	4640      	mov	r0, r8
 80037d0:	4649      	mov	r1, r9
 80037d2:	f7fd f92b 	bl	8000a2c <__aeabi_dcmplt>
 80037d6:	b120      	cbz	r0, 80037e2 <__ieee754_sqrt+0x19e>
 80037d8:	1ca0      	adds	r0, r4, #2
 80037da:	bf08      	it	eq
 80037dc:	3601      	addeq	r6, #1
 80037de:	3402      	adds	r4, #2
 80037e0:	e7df      	b.n	80037a2 <__ieee754_sqrt+0x15e>
 80037e2:	1c63      	adds	r3, r4, #1
 80037e4:	f023 0401 	bic.w	r4, r3, #1
 80037e8:	e7db      	b.n	80037a2 <__ieee754_sqrt+0x15e>
 80037ea:	bf00      	nop
 80037ec:	7ff00000 	.word	0x7ff00000
 80037f0:	2000c8b8 	.word	0x2000c8b8
 80037f4:	2000c8b0 	.word	0x2000c8b0

080037f8 <__ieee754_pow>:
 80037f8:	e92d 4ff0 	stmdb	sp!, {r4, r5, r6, r7, r8, r9, sl, fp, lr}
 80037fc:	b091      	sub	sp, #68	@ 0x44
 80037fe:	ed8d 1b00 	vstr	d1, [sp]
 8003802:	e9dd 1900 	ldrd	r1, r9, [sp]
 8003806:	f029 4a00 	bic.w	sl, r9, #2147483648	@ 0x80000000
 800380a:	ea5a 0001 	orrs.w	r0, sl, r1
 800380e:	ec57 6b10 	vmov	r6, r7, d0
 8003812:	d113      	bne.n	800383c <__ieee754_pow+0x44>
 8003814:	19b3      	adds	r3, r6, r6
 8003816:	f487 2200 	eor.w	r2, r7, #524288	@ 0x80000
 800381a:	4152      	adcs	r2, r2
 800381c:	4298      	cmp	r0, r3
 800381e:	4b98      	ldr	r3, [pc, #608]	@ (8003a80 <__ieee754_pow+0x288>)
 8003820:	4193      	sbcs	r3, r2
 8003822:	f080 84ea 	bcs.w	80041fa <__ieee754_pow+0xa02>
 8003826:	e9dd 2300 	ldrd	r2, r3, [sp]
 800382a:	4630      	mov	r0, r6
 800382c:	4639      	mov	r1, r7
 800382e:	f7fc fcd5 	bl	80001dc <__adddf3>
 8003832:	ec41 0b10 	vmov	d0, r0, r1
 8003836:	b011      	add	sp, #68	@ 0x44
 8003838:	e8bd 8ff0 	ldmia.w	sp!, {r4, r5, r6, r7, r8, r9, sl, fp, pc}
 800383c:	4a91      	ldr	r2, [pc, #580]	@ (8003a84 <__ieee754_pow+0x28c>)
 800383e:	f027 4800 	bic.w	r8, r7, #2147483648	@ 0x80000000
 8003842:	4590      	cmp	r8, r2
 8003844:	463d      	mov	r5, r7
 8003846:	4633      	mov	r3, r6
 8003848:	d806      	bhi.n	8003858 <__ieee754_pow+0x60>
 800384a:	d101      	bne.n	8003850 <__ieee754_pow+0x58>
 800384c:	2e00      	cmp	r6, #0
 800384e:	d1ea      	bne.n	8003826 <__ieee754_pow+0x2e>
 8003850:	4592      	cmp	sl, r2
 8003852:	d801      	bhi.n	8003858 <__ieee754_pow+0x60>
 8003854:	d10e      	bne.n	8003874 <__ieee754_pow+0x7c>
 8003856:	b169      	cbz	r1, 8003874 <__ieee754_pow+0x7c>
 8003858:	f105 4540 	add.w	r5, r5, #3221225472	@ 0xc0000000
 800385c:	f505 1580 	add.w	r5, r5, #1048576	@ 0x100000
 8003860:	431d      	orrs	r5, r3
 8003862:	d1e0      	bne.n	8003826 <__ieee754_pow+0x2e>
 8003864:	e9dd 3200 	ldrd	r3, r2, [sp]
 8003868:	18db      	adds	r3, r3, r3
 800386a:	f482 2200 	eor.w	r2, r2, #524288	@ 0x80000
 800386e:	4152      	adcs	r2, r2
 8003870:	429d      	cmp	r5, r3
 8003872:	e7d4      	b.n	800381e <__ieee754_pow+0x26>
 8003874:	2d00      	cmp	r5, #0
 8003876:	46c3      	mov	fp, r8
 8003878:	da3a      	bge.n	80038f0 <__ieee754_pow+0xf8>
 800387a:	4a83      	ldr	r2, [pc, #524]	@ (8003a88 <__ieee754_pow+0x290>)
 800387c:	4592      	cmp	sl, r2
 800387e:	d84d      	bhi.n	800391c <__ieee754_pow+0x124>
 8003880:	f1a2 7254 	sub.w	r2, r2, #55574528	@ 0x3500000
 8003884:	4592      	cmp	sl, r2
 8003886:	f240 84c7 	bls.w	8004218 <__ieee754_pow+0xa20>
 800388a:	ea4f 522a 	mov.w	r2, sl, asr #20
 800388e:	f2a2 32ff 	subw	r2, r2, #1023	@ 0x3ff
 8003892:	2a14      	cmp	r2, #20
 8003894:	dd0f      	ble.n	80038b6 <__ieee754_pow+0xbe>
 8003896:	f1c2 0234 	rsb	r2, r2, #52	@ 0x34
 800389a:	fa21 f402 	lsr.w	r4, r1, r2
 800389e:	fa04 f202 	lsl.w	r2, r4, r2
 80038a2:	428a      	cmp	r2, r1
 80038a4:	f040 84b8 	bne.w	8004218 <__ieee754_pow+0xa20>
 80038a8:	f004 0401 	and.w	r4, r4, #1
 80038ac:	f1c4 0402 	rsb	r4, r4, #2
 80038b0:	2900      	cmp	r1, #0
 80038b2:	d158      	bne.n	8003966 <__ieee754_pow+0x16e>
 80038b4:	e00e      	b.n	80038d4 <__ieee754_pow+0xdc>
 80038b6:	2900      	cmp	r1, #0
 80038b8:	d154      	bne.n	8003964 <__ieee754_pow+0x16c>
 80038ba:	f1c2 0214 	rsb	r2, r2, #20
 80038be:	fa4a f402 	asr.w	r4, sl, r2
 80038c2:	fa04 f202 	lsl.w	r2, r4, r2
 80038c6:	4552      	cmp	r2, sl
 80038c8:	f040 84a3 	bne.w	8004212 <__ieee754_pow+0xa1a>
 80038cc:	f004 0401 	and.w	r4, r4, #1
 80038d0:	f1c4 0402 	rsb	r4, r4, #2
 80038d4:	4a6d      	ldr	r2, [pc, #436]	@ (8003a8c <__ieee754_pow+0x294>)
 80038d6:	4592      	cmp	sl, r2
 80038d8:	d12e      	bne.n	8003938 <__ieee754_pow+0x140>
 80038da:	f1b9 0f00 	cmp.w	r9, #0
 80038de:	f280 8494 	bge.w	800420a <__ieee754_pow+0xa12>
 80038e2:	496a      	ldr	r1, [pc, #424]	@ (8003a8c <__ieee754_pow+0x294>)
 80038e4:	4632      	mov	r2, r6
 80038e6:	463b      	mov	r3, r7
 80038e8:	2000      	movs	r0, #0
 80038ea:	f7fc ff57 	bl	800079c <__aeabi_ddiv>
 80038ee:	e7a0      	b.n	8003832 <__ieee754_pow+0x3a>
 80038f0:	2400      	movs	r4, #0
 80038f2:	bbc1      	cbnz	r1, 8003966 <__ieee754_pow+0x16e>
 80038f4:	4a63      	ldr	r2, [pc, #396]	@ (8003a84 <__ieee754_pow+0x28c>)
 80038f6:	4592      	cmp	sl, r2
 80038f8:	d1ec      	bne.n	80038d4 <__ieee754_pow+0xdc>
 80038fa:	f108 4240 	add.w	r2, r8, #3221225472	@ 0xc0000000
 80038fe:	f502 1280 	add.w	r2, r2, #1048576	@ 0x100000
 8003902:	431a      	orrs	r2, r3
 8003904:	f000 8479 	beq.w	80041fa <__ieee754_pow+0xa02>
 8003908:	4b61      	ldr	r3, [pc, #388]	@ (8003a90 <__ieee754_pow+0x298>)
 800390a:	4598      	cmp	r8, r3
 800390c:	d908      	bls.n	8003920 <__ieee754_pow+0x128>
 800390e:	f1b9 0f00 	cmp.w	r9, #0
 8003912:	f2c0 8476 	blt.w	8004202 <__ieee754_pow+0xa0a>
 8003916:	e9dd 0100 	ldrd	r0, r1, [sp]
 800391a:	e78a      	b.n	8003832 <__ieee754_pow+0x3a>
 800391c:	2402      	movs	r4, #2
 800391e:	e7e8      	b.n	80038f2 <__ieee754_pow+0xfa>
 8003920:	f1b9 0f00 	cmp.w	r9, #0
 8003924:	f04f 0000 	mov.w	r0, #0
 8003928:	f04f 0100 	mov.w	r1, #0
 800392c:	da81      	bge.n	8003832 <__ieee754_pow+0x3a>
 800392e:	e9dd 0300 	ldrd	r0, r3, [sp]
 8003932:	f103 4100 	add.w	r1, r3, #2147483648	@ 0x80000000
 8003936:	e77c      	b.n	8003832 <__ieee754_pow+0x3a>
 8003938:	f1b9 4f80 	cmp.w	r9, #1073741824	@ 0x40000000
 800393c:	d106      	bne.n	800394c <__ieee754_pow+0x154>
 800393e:	4632      	mov	r2, r6
 8003940:	463b      	mov	r3, r7
 8003942:	4630      	mov	r0, r6
 8003944:	4639      	mov	r1, r7
 8003946:	f7fc fdff 	bl	8000548 <__aeabi_dmul>
 800394a:	e772      	b.n	8003832 <__ieee754_pow+0x3a>
 800394c:	4a51      	ldr	r2, [pc, #324]	@ (8003a94 <__ieee754_pow+0x29c>)
 800394e:	4591      	cmp	r9, r2
 8003950:	d109      	bne.n	8003966 <__ieee754_pow+0x16e>
 8003952:	2d00      	cmp	r5, #0
 8003954:	db07      	blt.n	8003966 <__ieee754_pow+0x16e>
 8003956:	ec47 6b10 	vmov	d0, r6, r7
 800395a:	b011      	add	sp, #68	@ 0x44
 800395c:	e8bd 4ff0 	ldmia.w	sp!, {r4, r5, r6, r7, r8, r9, sl, fp, lr}
 8003960:	f7ff be70 	b.w	8003644 <__ieee754_sqrt>
 8003964:	2400      	movs	r4, #0
 8003966:	ec47 6b10 	vmov	d0, r6, r7
 800396a:	9302      	str	r3, [sp, #8]
 800396c:	f000 fc88 	bl	8004280 <fabs>
 8003970:	9b02      	ldr	r3, [sp, #8]
 8003972:	ec51 0b10 	vmov	r0, r1, d0
 8003976:	bb53      	cbnz	r3, 80039ce <__ieee754_pow+0x1d6>
 8003978:	4b44      	ldr	r3, [pc, #272]	@ (8003a8c <__ieee754_pow+0x294>)
 800397a:	f025 4240 	bic.w	r2, r5, #3221225472	@ 0xc0000000
 800397e:	429a      	cmp	r2, r3
 8003980:	d002      	beq.n	8003988 <__ieee754_pow+0x190>
 8003982:	f1b8 0f00 	cmp.w	r8, #0
 8003986:	d122      	bne.n	80039ce <__ieee754_pow+0x1d6>
 8003988:	f1b9 0f00 	cmp.w	r9, #0
 800398c:	da05      	bge.n	800399a <__ieee754_pow+0x1a2>
 800398e:	4602      	mov	r2, r0
 8003990:	460b      	mov	r3, r1
 8003992:	2000      	movs	r0, #0
 8003994:	493d      	ldr	r1, [pc, #244]	@ (8003a8c <__ieee754_pow+0x294>)
 8003996:	f7fc ff01 	bl	800079c <__aeabi_ddiv>
 800399a:	2d00      	cmp	r5, #0
 800399c:	f6bf af49 	bge.w	8003832 <__ieee754_pow+0x3a>
 80039a0:	f108 4840 	add.w	r8, r8, #3221225472	@ 0xc0000000
 80039a4:	f508 1880 	add.w	r8, r8, #1048576	@ 0x100000
 80039a8:	ea58 0804 	orrs.w	r8, r8, r4
 80039ac:	d108      	bne.n	80039c0 <__ieee754_pow+0x1c8>
 80039ae:	4602      	mov	r2, r0
 80039b0:	460b      	mov	r3, r1
 80039b2:	4610      	mov	r0, r2
 80039b4:	4619      	mov	r1, r3
 80039b6:	f7fc fc0f 	bl	80001d8 <__aeabi_dsub>
 80039ba:	4602      	mov	r2, r0
 80039bc:	460b      	mov	r3, r1
 80039be:	e794      	b.n	80038ea <__ieee754_pow+0xf2>
 80039c0:	2c01      	cmp	r4, #1
 80039c2:	f47f af36 	bne.w	8003832 <__ieee754_pow+0x3a>
 80039c6:	f101 4300 	add.w	r3, r1, #2147483648	@ 0x80000000
 80039ca:	4619      	mov	r1, r3
 80039cc:	e731      	b.n	8003832 <__ieee754_pow+0x3a>
 80039ce:	0feb      	lsrs	r3, r5, #31
 80039d0:	3b01      	subs	r3, #1
 80039d2:	ea53 0204 	orrs.w	r2, r3, r4
 80039d6:	d102      	bne.n	80039de <__ieee754_pow+0x1e6>
 80039d8:	4632      	mov	r2, r6
 80039da:	463b      	mov	r3, r7
 80039dc:	e7e9      	b.n	80039b2 <__ieee754_pow+0x1ba>
 80039de:	3c01      	subs	r4, #1
 80039e0:	431c      	orrs	r4, r3
 80039e2:	d016      	beq.n	8003a12 <__ieee754_pow+0x21a>
 80039e4:	ed9f 7b22 	vldr	d7, [pc, #136]	@ 8003a70 <__ieee754_pow+0x278>
 80039e8:	f1ba 4f84 	cmp.w	sl, #1107296256	@ 0x42000000
 80039ec:	ed8d 7b02 	vstr	d7, [sp, #8]
 80039f0:	f240 8112 	bls.w	8003c18 <__ieee754_pow+0x420>
 80039f4:	4b28      	ldr	r3, [pc, #160]	@ (8003a98 <__ieee754_pow+0x2a0>)
 80039f6:	459a      	cmp	sl, r3
 80039f8:	4b25      	ldr	r3, [pc, #148]	@ (8003a90 <__ieee754_pow+0x298>)
 80039fa:	d916      	bls.n	8003a2a <__ieee754_pow+0x232>
 80039fc:	4598      	cmp	r8, r3
 80039fe:	d80b      	bhi.n	8003a18 <__ieee754_pow+0x220>
 8003a00:	f1b9 0f00 	cmp.w	r9, #0
 8003a04:	da0b      	bge.n	8003a1e <__ieee754_pow+0x226>
 8003a06:	2000      	movs	r0, #0
 8003a08:	b011      	add	sp, #68	@ 0x44
 8003a0a:	e8bd 4ff0 	ldmia.w	sp!, {r4, r5, r6, r7, r8, r9, sl, fp, lr}
 8003a0e:	f000 bcf3 	b.w	80043f8 <__math_oflow>
 8003a12:	ed9f 7b19 	vldr	d7, [pc, #100]	@ 8003a78 <__ieee754_pow+0x280>
 8003a16:	e7e7      	b.n	80039e8 <__ieee754_pow+0x1f0>
 8003a18:	f1b9 0f00 	cmp.w	r9, #0
 8003a1c:	dcf3      	bgt.n	8003a06 <__ieee754_pow+0x20e>
 8003a1e:	2000      	movs	r0, #0
 8003a20:	b011      	add	sp, #68	@ 0x44
 8003a22:	e8bd 4ff0 	ldmia.w	sp!, {r4, r5, r6, r7, r8, r9, sl, fp, lr}
 8003a26:	f000 bcdf 	b.w	80043e8 <__math_uflow>
 8003a2a:	4598      	cmp	r8, r3
 8003a2c:	d20c      	bcs.n	8003a48 <__ieee754_pow+0x250>
 8003a2e:	e9dd 0102 	ldrd	r0, r1, [sp, #8]
 8003a32:	2200      	movs	r2, #0
 8003a34:	2300      	movs	r3, #0
 8003a36:	f7fc fff9 	bl	8000a2c <__aeabi_dcmplt>
 8003a3a:	3800      	subs	r0, #0
 8003a3c:	bf18      	it	ne
 8003a3e:	2001      	movne	r0, #1
 8003a40:	f1b9 0f00 	cmp.w	r9, #0
 8003a44:	daec      	bge.n	8003a20 <__ieee754_pow+0x228>
 8003a46:	e7df      	b.n	8003a08 <__ieee754_pow+0x210>
 8003a48:	4b10      	ldr	r3, [pc, #64]	@ (8003a8c <__ieee754_pow+0x294>)
 8003a4a:	4598      	cmp	r8, r3
 8003a4c:	f04f 0200 	mov.w	r2, #0
 8003a50:	d924      	bls.n	8003a9c <__ieee754_pow+0x2a4>
 8003a52:	e9dd 0102 	ldrd	r0, r1, [sp, #8]
 8003a56:	2300      	movs	r3, #0
 8003a58:	f7fc ffe8 	bl	8000a2c <__aeabi_dcmplt>
 8003a5c:	3800      	subs	r0, #0
 8003a5e:	bf18      	it	ne
 8003a60:	2001      	movne	r0, #1
 8003a62:	f1b9 0f00 	cmp.w	r9, #0
 8003a66:	dccf      	bgt.n	8003a08 <__ieee754_pow+0x210>
 8003a68:	e7da      	b.n	8003a20 <__ieee754_pow+0x228>
 8003a6a:	bf00      	nop
 8003a6c:	f3af 8000 	nop.w
 8003a70:	00000000 	.word	0x00000000
 8003a74:	3ff00000 	.word	0x3ff00000
 8003a78:	00000000 	.word	0x00000000
 8003a7c:	bff00000 	.word	0xbff00000
 8003a80:	fff00000 	.word	0xfff00000
 8003a84:	7ff00000 	.word	0x7ff00000
 8003a88:	433fffff 	.word	0x433fffff
 8003a8c:	3ff00000 	.word	0x3ff00000
 8003a90:	3fefffff 	.word	0x3fefffff
 8003a94:	3fe00000 	.word	0x3fe00000
 8003a98:	43f00000 	.word	0x43f00000
 8003a9c:	4b5a      	ldr	r3, [pc, #360]	@ (8003c08 <__ieee754_pow+0x410>)
 8003a9e:	f7fc fb9b 	bl	80001d8 <__aeabi_dsub>
 8003aa2:	a351      	add	r3, pc, #324	@ (adr r3, 8003be8 <__ieee754_pow+0x3f0>)
 8003aa4:	e9d3 2300 	ldrd	r2, r3, [r3]
 8003aa8:	4604      	mov	r4, r0
 8003aaa:	460d      	mov	r5, r1
 8003aac:	f7fc fd4c 	bl	8000548 <__aeabi_dmul>
 8003ab0:	a34f      	add	r3, pc, #316	@ (adr r3, 8003bf0 <__ieee754_pow+0x3f8>)
 8003ab2:	e9d3 2300 	ldrd	r2, r3, [r3]
 8003ab6:	4606      	mov	r6, r0
 8003ab8:	460f      	mov	r7, r1
 8003aba:	4620      	mov	r0, r4
 8003abc:	4629      	mov	r1, r5
 8003abe:	f7fc fd43 	bl	8000548 <__aeabi_dmul>
 8003ac2:	4b52      	ldr	r3, [pc, #328]	@ (8003c0c <__ieee754_pow+0x414>)
 8003ac4:	4682      	mov	sl, r0
 8003ac6:	468b      	mov	fp, r1
 8003ac8:	2200      	movs	r2, #0
 8003aca:	4620      	mov	r0, r4
 8003acc:	4629      	mov	r1, r5
 8003ace:	f7fc fd3b 	bl	8000548 <__aeabi_dmul>
 8003ad2:	4602      	mov	r2, r0
 8003ad4:	460b      	mov	r3, r1
 8003ad6:	a148      	add	r1, pc, #288	@ (adr r1, 8003bf8 <__ieee754_pow+0x400>)
 8003ad8:	e9d1 0100 	ldrd	r0, r1, [r1]
 8003adc:	f7fc fb7c 	bl	80001d8 <__aeabi_dsub>
 8003ae0:	4622      	mov	r2, r4
 8003ae2:	462b      	mov	r3, r5
 8003ae4:	f7fc fd30 	bl	8000548 <__aeabi_dmul>
 8003ae8:	4602      	mov	r2, r0
 8003aea:	460b      	mov	r3, r1
 8003aec:	2000      	movs	r0, #0
 8003aee:	4948      	ldr	r1, [pc, #288]	@ (8003c10 <__ieee754_pow+0x418>)
 8003af0:	f7fc fb72 	bl	80001d8 <__aeabi_dsub>
 8003af4:	4622      	mov	r2, r4
 8003af6:	4680      	mov	r8, r0
 8003af8:	4689      	mov	r9, r1
 8003afa:	462b      	mov	r3, r5
 8003afc:	4620      	mov	r0, r4
 8003afe:	4629      	mov	r1, r5
 8003b00:	f7fc fd22 	bl	8000548 <__aeabi_dmul>
 8003b04:	4602      	mov	r2, r0
 8003b06:	460b      	mov	r3, r1
 8003b08:	4640      	mov	r0, r8
 8003b0a:	4649      	mov	r1, r9
 8003b0c:	f7fc fd1c 	bl	8000548 <__aeabi_dmul>
 8003b10:	a33b      	add	r3, pc, #236	@ (adr r3, 8003c00 <__ieee754_pow+0x408>)
 8003b12:	e9d3 2300 	ldrd	r2, r3, [r3]
 8003b16:	f7fc fd17 	bl	8000548 <__aeabi_dmul>
 8003b1a:	4602      	mov	r2, r0
 8003b1c:	460b      	mov	r3, r1
 8003b1e:	4650      	mov	r0, sl
 8003b20:	4659      	mov	r1, fp
 8003b22:	f7fc fb59 	bl	80001d8 <__aeabi_dsub>
 8003b26:	4602      	mov	r2, r0
 8003b28:	460b      	mov	r3, r1
 8003b2a:	4680      	mov	r8, r0
 8003b2c:	4689      	mov	r9, r1
 8003b2e:	4630      	mov	r0, r6
 8003b30:	4639      	mov	r1, r7
 8003b32:	f7fc fb53 	bl	80001dc <__adddf3>
 8003b36:	2400      	movs	r4, #0
 8003b38:	4632      	mov	r2, r6
 8003b3a:	463b      	mov	r3, r7
 8003b3c:	4620      	mov	r0, r4
 8003b3e:	460d      	mov	r5, r1
 8003b40:	f7fc fb4a 	bl	80001d8 <__aeabi_dsub>
 8003b44:	4602      	mov	r2, r0
 8003b46:	460b      	mov	r3, r1
 8003b48:	4640      	mov	r0, r8
 8003b4a:	4649      	mov	r1, r9
 8003b4c:	f7fc fb44 	bl	80001d8 <__aeabi_dsub>
 8003b50:	e9dd 2300 	ldrd	r2, r3, [sp]
 8003b54:	e9cd 2304 	strd	r2, r3, [sp, #16]
 8003b58:	2300      	movs	r3, #0
 8003b5a:	9304      	str	r3, [sp, #16]
 8003b5c:	e9dd ab04 	ldrd	sl, fp, [sp, #16]
 8003b60:	4606      	mov	r6, r0
 8003b62:	460f      	mov	r7, r1
 8003b64:	4652      	mov	r2, sl
 8003b66:	465b      	mov	r3, fp
 8003b68:	e9dd 0100 	ldrd	r0, r1, [sp]
 8003b6c:	f7fc fb34 	bl	80001d8 <__aeabi_dsub>
 8003b70:	4622      	mov	r2, r4
 8003b72:	462b      	mov	r3, r5
 8003b74:	f7fc fce8 	bl	8000548 <__aeabi_dmul>
 8003b78:	e9dd 2300 	ldrd	r2, r3, [sp]
 8003b7c:	4680      	mov	r8, r0
 8003b7e:	4689      	mov	r9, r1
 8003b80:	4630      	mov	r0, r6
 8003b82:	4639      	mov	r1, r7
 8003b84:	f7fc fce0 	bl	8000548 <__aeabi_dmul>
 8003b88:	4602      	mov	r2, r0
 8003b8a:	460b      	mov	r3, r1
 8003b8c:	4640      	mov	r0, r8
 8003b8e:	4649      	mov	r1, r9
 8003b90:	f7fc fb24 	bl	80001dc <__adddf3>
 8003b94:	4652      	mov	r2, sl
 8003b96:	465b      	mov	r3, fp
 8003b98:	4606      	mov	r6, r0
 8003b9a:	460f      	mov	r7, r1
 8003b9c:	4620      	mov	r0, r4
 8003b9e:	4629      	mov	r1, r5
 8003ba0:	f7fc fcd2 	bl	8000548 <__aeabi_dmul>
 8003ba4:	460b      	mov	r3, r1
 8003ba6:	4602      	mov	r2, r0
 8003ba8:	4680      	mov	r8, r0
 8003baa:	4689      	mov	r9, r1
 8003bac:	4630      	mov	r0, r6
 8003bae:	4639      	mov	r1, r7
 8003bb0:	f7fc fb14 	bl	80001dc <__adddf3>
 8003bb4:	4b17      	ldr	r3, [pc, #92]	@ (8003c14 <__ieee754_pow+0x41c>)
 8003bb6:	4299      	cmp	r1, r3
 8003bb8:	4604      	mov	r4, r0
 8003bba:	460d      	mov	r5, r1
 8003bbc:	468a      	mov	sl, r1
 8003bbe:	468b      	mov	fp, r1
 8003bc0:	f340 82ef 	ble.w	80041a2 <__ieee754_pow+0x9aa>
 8003bc4:	f101 433f 	add.w	r3, r1, #3204448256	@ 0xbf000000
 8003bc8:	f503 03e0 	add.w	r3, r3, #7340032	@ 0x700000
 8003bcc:	4303      	orrs	r3, r0
 8003bce:	f000 81e8 	beq.w	8003fa2 <__ieee754_pow+0x7aa>
 8003bd2:	e9dd 0102 	ldrd	r0, r1, [sp, #8]
 8003bd6:	2200      	movs	r2, #0
 8003bd8:	2300      	movs	r3, #0
 8003bda:	f7fc ff27 	bl	8000a2c <__aeabi_dcmplt>
 8003bde:	3800      	subs	r0, #0
 8003be0:	bf18      	it	ne
 8003be2:	2001      	movne	r0, #1
 8003be4:	e710      	b.n	8003a08 <__ieee754_pow+0x210>
 8003be6:	bf00      	nop
 8003be8:	60000000 	.word	0x60000000
 8003bec:	3ff71547 	.word	0x3ff71547
 8003bf0:	f85ddf44 	.word	0xf85ddf44
 8003bf4:	3e54ae0b 	.word	0x3e54ae0b
 8003bf8:	55555555 	.word	0x55555555
 8003bfc:	3fd55555 	.word	0x3fd55555
 8003c00:	652b82fe 	.word	0x652b82fe
 8003c04:	3ff71547 	.word	0x3ff71547
 8003c08:	3ff00000 	.word	0x3ff00000
 8003c0c:	3fd00000 	.word	0x3fd00000
 8003c10:	3fe00000 	.word	0x3fe00000
 8003c14:	408fffff 	.word	0x408fffff
 8003c18:	4bd5      	ldr	r3, [pc, #852]	@ (8003f70 <__ieee754_pow+0x778>)
 8003c1a:	402b      	ands	r3, r5
 8003c1c:	2200      	movs	r2, #0
 8003c1e:	b92b      	cbnz	r3, 8003c2c <__ieee754_pow+0x434>
 8003c20:	4bd4      	ldr	r3, [pc, #848]	@ (8003f74 <__ieee754_pow+0x77c>)
 8003c22:	f7fc fc91 	bl	8000548 <__aeabi_dmul>
 8003c26:	f06f 0234 	mvn.w	r2, #52	@ 0x34
 8003c2a:	468b      	mov	fp, r1
 8003c2c:	ea4f 532b 	mov.w	r3, fp, asr #20
 8003c30:	f2a3 33ff 	subw	r3, r3, #1023	@ 0x3ff
 8003c34:	4413      	add	r3, r2
 8003c36:	930a      	str	r3, [sp, #40]	@ 0x28
 8003c38:	4bcf      	ldr	r3, [pc, #828]	@ (8003f78 <__ieee754_pow+0x780>)
 8003c3a:	f3cb 0b13 	ubfx	fp, fp, #0, #20
 8003c3e:	f04b 557f 	orr.w	r5, fp, #1069547520	@ 0x3fc00000
 8003c42:	459b      	cmp	fp, r3
 8003c44:	f445 1540 	orr.w	r5, r5, #3145728	@ 0x300000
 8003c48:	dd08      	ble.n	8003c5c <__ieee754_pow+0x464>
 8003c4a:	4bcc      	ldr	r3, [pc, #816]	@ (8003f7c <__ieee754_pow+0x784>)
 8003c4c:	459b      	cmp	fp, r3
 8003c4e:	f340 81a5 	ble.w	8003f9c <__ieee754_pow+0x7a4>
 8003c52:	9b0a      	ldr	r3, [sp, #40]	@ 0x28
 8003c54:	3301      	adds	r3, #1
 8003c56:	930a      	str	r3, [sp, #40]	@ 0x28
 8003c58:	f5a5 1580 	sub.w	r5, r5, #1048576	@ 0x100000
 8003c5c:	f04f 0a00 	mov.w	sl, #0
 8003c60:	ea4f 03ca 	mov.w	r3, sl, lsl #3
 8003c64:	930b      	str	r3, [sp, #44]	@ 0x2c
 8003c66:	4bc6      	ldr	r3, [pc, #792]	@ (8003f80 <__ieee754_pow+0x788>)
 8003c68:	eb03 03ca 	add.w	r3, r3, sl, lsl #3
 8003c6c:	ed93 7b00 	vldr	d7, [r3]
 8003c70:	4629      	mov	r1, r5
 8003c72:	ec53 2b17 	vmov	r2, r3, d7
 8003c76:	ed8d 7b06 	vstr	d7, [sp, #24]
 8003c7a:	e9cd 0108 	strd	r0, r1, [sp, #32]
 8003c7e:	f7fc faab 	bl	80001d8 <__aeabi_dsub>
 8003c82:	e9dd 2308 	ldrd	r2, r3, [sp, #32]
 8003c86:	4606      	mov	r6, r0
 8003c88:	460f      	mov	r7, r1
 8003c8a:	e9dd 0106 	ldrd	r0, r1, [sp, #24]
 8003c8e:	f7fc faa5 	bl	80001dc <__adddf3>
 8003c92:	4602      	mov	r2, r0
 8003c94:	460b      	mov	r3, r1
 8003c96:	2000      	movs	r0, #0
 8003c98:	49ba      	ldr	r1, [pc, #744]	@ (8003f84 <__ieee754_pow+0x78c>)
 8003c9a:	f7fc fd7f 	bl	800079c <__aeabi_ddiv>
 8003c9e:	e9cd 010c 	strd	r0, r1, [sp, #48]	@ 0x30
 8003ca2:	4602      	mov	r2, r0
 8003ca4:	460b      	mov	r3, r1
 8003ca6:	4630      	mov	r0, r6
 8003ca8:	4639      	mov	r1, r7
 8003caa:	f7fc fc4d 	bl	8000548 <__aeabi_dmul>
 8003cae:	e9cd 0104 	strd	r0, r1, [sp, #16]
 8003cb2:	e9dd bc04 	ldrd	fp, ip, [sp, #16]
 8003cb6:	106d      	asrs	r5, r5, #1
 8003cb8:	f045 5500 	orr.w	r5, r5, #536870912	@ 0x20000000
 8003cbc:	f04f 0b00 	mov.w	fp, #0
 8003cc0:	f505 2500 	add.w	r5, r5, #524288	@ 0x80000
 8003cc4:	4661      	mov	r1, ip
 8003cc6:	2200      	movs	r2, #0
 8003cc8:	eb05 438a 	add.w	r3, r5, sl, lsl #18
 8003ccc:	4658      	mov	r0, fp
 8003cce:	46e1      	mov	r9, ip
 8003cd0:	e9cd bc0e 	strd	fp, ip, [sp, #56]	@ 0x38
 8003cd4:	4614      	mov	r4, r2
 8003cd6:	461d      	mov	r5, r3
 8003cd8:	f7fc fc36 	bl	8000548 <__aeabi_dmul>
 8003cdc:	4602      	mov	r2, r0
 8003cde:	460b      	mov	r3, r1
 8003ce0:	4630      	mov	r0, r6
 8003ce2:	4639      	mov	r1, r7
 8003ce4:	f7fc fa78 	bl	80001d8 <__aeabi_dsub>
 8003ce8:	e9dd 2306 	ldrd	r2, r3, [sp, #24]
 8003cec:	4606      	mov	r6, r0
 8003cee:	460f      	mov	r7, r1
 8003cf0:	4620      	mov	r0, r4
 8003cf2:	4629      	mov	r1, r5
 8003cf4:	f7fc fa70 	bl	80001d8 <__aeabi_dsub>
 8003cf8:	4602      	mov	r2, r0
 8003cfa:	460b      	mov	r3, r1
 8003cfc:	e9dd 0108 	ldrd	r0, r1, [sp, #32]
 8003d00:	f7fc fa6a 	bl	80001d8 <__aeabi_dsub>
 8003d04:	465a      	mov	r2, fp
 8003d06:	464b      	mov	r3, r9
 8003d08:	f7fc fc1e 	bl	8000548 <__aeabi_dmul>
 8003d0c:	4602      	mov	r2, r0
 8003d0e:	460b      	mov	r3, r1
 8003d10:	4630      	mov	r0, r6
 8003d12:	4639      	mov	r1, r7
 8003d14:	f7fc fa60 	bl	80001d8 <__aeabi_dsub>
 8003d18:	e9dd 230c 	ldrd	r2, r3, [sp, #48]	@ 0x30
 8003d1c:	f7fc fc14 	bl	8000548 <__aeabi_dmul>
 8003d20:	e9dd 2304 	ldrd	r2, r3, [sp, #16]
 8003d24:	e9cd 0106 	strd	r0, r1, [sp, #24]
 8003d28:	4610      	mov	r0, r2
 8003d2a:	4619      	mov	r1, r3
 8003d2c:	f7fc fc0c 	bl	8000548 <__aeabi_dmul>
 8003d30:	a37d      	add	r3, pc, #500	@ (adr r3, 8003f28 <__ieee754_pow+0x730>)
 8003d32:	e9d3 2300 	ldrd	r2, r3, [r3]
 8003d36:	4604      	mov	r4, r0
 8003d38:	460d      	mov	r5, r1
 8003d3a:	f7fc fc05 	bl	8000548 <__aeabi_dmul>
 8003d3e:	a37c      	add	r3, pc, #496	@ (adr r3, 8003f30 <__ieee754_pow+0x738>)
 8003d40:	e9d3 2300 	ldrd	r2, r3, [r3]
 8003d44:	f7fc fa4a 	bl	80001dc <__adddf3>
 8003d48:	4622      	mov	r2, r4
 8003d4a:	462b      	mov	r3, r5
 8003d4c:	f7fc fbfc 	bl	8000548 <__aeabi_dmul>
 8003d50:	a379      	add	r3, pc, #484	@ (adr r3, 8003f38 <__ieee754_pow+0x740>)
 8003d52:	e9d3 2300 	ldrd	r2, r3, [r3]
 8003d56:	f7fc fa41 	bl	80001dc <__adddf3>
 8003d5a:	4622      	mov	r2, r4
 8003d5c:	462b      	mov	r3, r5
 8003d5e:	f7fc fbf3 	bl	8000548 <__aeabi_dmul>
 8003d62:	a377      	add	r3, pc, #476	@ (adr r3, 8003f40 <__ieee754_pow+0x748>)
 8003d64:	e9d3 2300 	ldrd	r2, r3, [r3]
 8003d68:	f7fc fa38 	bl	80001dc <__adddf3>
 8003d6c:	4622      	mov	r2, r4
 8003d6e:	462b      	mov	r3, r5
 8003d70:	f7fc fbea 	bl	8000548 <__aeabi_dmul>
 8003d74:	a374      	add	r3, pc, #464	@ (adr r3, 8003f48 <__ieee754_pow+0x750>)
 8003d76:	e9d3 2300 	ldrd	r2, r3, [r3]
 8003d7a:	f7fc fa2f 	bl	80001dc <__adddf3>
 8003d7e:	4622      	mov	r2, r4
 8003d80:	462b      	mov	r3, r5
 8003d82:	f7fc fbe1 	bl	8000548 <__aeabi_dmul>
 8003d86:	a372      	add	r3, pc, #456	@ (adr r3, 8003f50 <__ieee754_pow+0x758>)
 8003d88:	e9d3 2300 	ldrd	r2, r3, [r3]
 8003d8c:	f7fc fa26 	bl	80001dc <__adddf3>
 8003d90:	4622      	mov	r2, r4
 8003d92:	4606      	mov	r6, r0
 8003d94:	460f      	mov	r7, r1
 8003d96:	462b      	mov	r3, r5
 8003d98:	4620      	mov	r0, r4
 8003d9a:	4629      	mov	r1, r5
 8003d9c:	f7fc fbd4 	bl	8000548 <__aeabi_dmul>
 8003da0:	4602      	mov	r2, r0
 8003da2:	460b      	mov	r3, r1
 8003da4:	4630      	mov	r0, r6
 8003da6:	4639      	mov	r1, r7
 8003da8:	f7fc fbce 	bl	8000548 <__aeabi_dmul>
 8003dac:	465a      	mov	r2, fp
 8003dae:	4604      	mov	r4, r0
 8003db0:	460d      	mov	r5, r1
 8003db2:	464b      	mov	r3, r9
 8003db4:	e9dd 0104 	ldrd	r0, r1, [sp, #16]
 8003db8:	f7fc fa10 	bl	80001dc <__adddf3>
 8003dbc:	e9dd 2306 	ldrd	r2, r3, [sp, #24]
 8003dc0:	f7fc fbc2 	bl	8000548 <__aeabi_dmul>
 8003dc4:	4622      	mov	r2, r4
 8003dc6:	462b      	mov	r3, r5
 8003dc8:	f7fc fa08 	bl	80001dc <__adddf3>
 8003dcc:	465a      	mov	r2, fp
 8003dce:	e9cd 0108 	strd	r0, r1, [sp, #32]
 8003dd2:	464b      	mov	r3, r9
 8003dd4:	4658      	mov	r0, fp
 8003dd6:	4649      	mov	r1, r9
 8003dd8:	f7fc fbb6 	bl	8000548 <__aeabi_dmul>
 8003ddc:	4b6a      	ldr	r3, [pc, #424]	@ (8003f88 <__ieee754_pow+0x790>)
 8003dde:	2200      	movs	r2, #0
 8003de0:	4606      	mov	r6, r0
 8003de2:	460f      	mov	r7, r1
 8003de4:	f7fc f9fa 	bl	80001dc <__adddf3>
 8003de8:	e9dd 2308 	ldrd	r2, r3, [sp, #32]
 8003dec:	f7fc f9f6 	bl	80001dc <__adddf3>
 8003df0:	46d8      	mov	r8, fp
 8003df2:	e9dd bc0e 	ldrd	fp, ip, [sp, #56]	@ 0x38
 8003df6:	460d      	mov	r5, r1
 8003df8:	465a      	mov	r2, fp
 8003dfa:	460b      	mov	r3, r1
 8003dfc:	4640      	mov	r0, r8
 8003dfe:	4649      	mov	r1, r9
 8003e00:	e9cd bc0c 	strd	fp, ip, [sp, #48]	@ 0x30
 8003e04:	f7fc fba0 	bl	8000548 <__aeabi_dmul>
 8003e08:	465c      	mov	r4, fp
 8003e0a:	4680      	mov	r8, r0
 8003e0c:	4689      	mov	r9, r1
 8003e0e:	4b5e      	ldr	r3, [pc, #376]	@ (8003f88 <__ieee754_pow+0x790>)
 8003e10:	2200      	movs	r2, #0
 8003e12:	4620      	mov	r0, r4
 8003e14:	4629      	mov	r1, r5
 8003e16:	f7fc f9df 	bl	80001d8 <__aeabi_dsub>
 8003e1a:	4632      	mov	r2, r6
 8003e1c:	463b      	mov	r3, r7
 8003e1e:	f7fc f9db 	bl	80001d8 <__aeabi_dsub>
 8003e22:	4602      	mov	r2, r0
 8003e24:	460b      	mov	r3, r1
 8003e26:	e9dd 0108 	ldrd	r0, r1, [sp, #32]
 8003e2a:	f7fc f9d5 	bl	80001d8 <__aeabi_dsub>
 8003e2e:	e9dd 2304 	ldrd	r2, r3, [sp, #16]
 8003e32:	f7fc fb89 	bl	8000548 <__aeabi_dmul>
 8003e36:	4622      	mov	r2, r4
 8003e38:	4606      	mov	r6, r0
 8003e3a:	460f      	mov	r7, r1
 8003e3c:	462b      	mov	r3, r5
 8003e3e:	e9dd 0106 	ldrd	r0, r1, [sp, #24]
 8003e42:	f7fc fb81 	bl	8000548 <__aeabi_dmul>
 8003e46:	4602      	mov	r2, r0
 8003e48:	460b      	mov	r3, r1
 8003e4a:	4630      	mov	r0, r6
 8003e4c:	4639      	mov	r1, r7
 8003e4e:	f7fc f9c5 	bl	80001dc <__adddf3>
 8003e52:	4606      	mov	r6, r0
 8003e54:	460f      	mov	r7, r1
 8003e56:	4602      	mov	r2, r0
 8003e58:	460b      	mov	r3, r1
 8003e5a:	4640      	mov	r0, r8
 8003e5c:	4649      	mov	r1, r9
 8003e5e:	f7fc f9bd 	bl	80001dc <__adddf3>
 8003e62:	e9dd bc0c 	ldrd	fp, ip, [sp, #48]	@ 0x30
 8003e66:	a33c      	add	r3, pc, #240	@ (adr r3, 8003f58 <__ieee754_pow+0x760>)
 8003e68:	e9d3 2300 	ldrd	r2, r3, [r3]
 8003e6c:	4658      	mov	r0, fp
 8003e6e:	e9cd bc08 	strd	fp, ip, [sp, #32]
 8003e72:	460d      	mov	r5, r1
 8003e74:	f7fc fb68 	bl	8000548 <__aeabi_dmul>
 8003e78:	465c      	mov	r4, fp
 8003e7a:	e9cd 0104 	strd	r0, r1, [sp, #16]
 8003e7e:	4642      	mov	r2, r8
 8003e80:	464b      	mov	r3, r9
 8003e82:	4620      	mov	r0, r4
 8003e84:	4629      	mov	r1, r5
 8003e86:	f7fc f9a7 	bl	80001d8 <__aeabi_dsub>
 8003e8a:	4602      	mov	r2, r0
 8003e8c:	460b      	mov	r3, r1
 8003e8e:	4630      	mov	r0, r6
 8003e90:	4639      	mov	r1, r7
 8003e92:	f7fc f9a1 	bl	80001d8 <__aeabi_dsub>
 8003e96:	a332      	add	r3, pc, #200	@ (adr r3, 8003f60 <__ieee754_pow+0x768>)
 8003e98:	e9d3 2300 	ldrd	r2, r3, [r3]
 8003e9c:	f7fc fb54 	bl	8000548 <__aeabi_dmul>
 8003ea0:	a331      	add	r3, pc, #196	@ (adr r3, 8003f68 <__ieee754_pow+0x770>)
 8003ea2:	e9d3 2300 	ldrd	r2, r3, [r3]
 8003ea6:	4606      	mov	r6, r0
 8003ea8:	460f      	mov	r7, r1
 8003eaa:	4620      	mov	r0, r4
 8003eac:	4629      	mov	r1, r5
 8003eae:	f7fc fb4b 	bl	8000548 <__aeabi_dmul>
 8003eb2:	4602      	mov	r2, r0
 8003eb4:	460b      	mov	r3, r1
 8003eb6:	4630      	mov	r0, r6
 8003eb8:	4639      	mov	r1, r7
 8003eba:	f7fc f98f 	bl	80001dc <__adddf3>
 8003ebe:	9a0b      	ldr	r2, [sp, #44]	@ 0x2c
 8003ec0:	4b32      	ldr	r3, [pc, #200]	@ (8003f8c <__ieee754_pow+0x794>)
 8003ec2:	4413      	add	r3, r2
 8003ec4:	e9d3 2300 	ldrd	r2, r3, [r3]
 8003ec8:	f7fc f988 	bl	80001dc <__adddf3>
 8003ecc:	e9cd 0106 	strd	r0, r1, [sp, #24]
 8003ed0:	980a      	ldr	r0, [sp, #40]	@ 0x28
 8003ed2:	f7fc facf 	bl	8000474 <__aeabi_i2d>
 8003ed6:	9a0b      	ldr	r2, [sp, #44]	@ 0x2c
 8003ed8:	4b2d      	ldr	r3, [pc, #180]	@ (8003f90 <__ieee754_pow+0x798>)
 8003eda:	4413      	add	r3, r2
 8003edc:	e9d3 8900 	ldrd	r8, r9, [r3]
 8003ee0:	4606      	mov	r6, r0
 8003ee2:	e9dd 2306 	ldrd	r2, r3, [sp, #24]
 8003ee6:	460f      	mov	r7, r1
 8003ee8:	e9dd 0104 	ldrd	r0, r1, [sp, #16]
 8003eec:	f7fc f976 	bl	80001dc <__adddf3>
 8003ef0:	4642      	mov	r2, r8
 8003ef2:	464b      	mov	r3, r9
 8003ef4:	f7fc f972 	bl	80001dc <__adddf3>
 8003ef8:	4632      	mov	r2, r6
 8003efa:	463b      	mov	r3, r7
 8003efc:	f7fc f96e 	bl	80001dc <__adddf3>
 8003f00:	e9dd bc08 	ldrd	fp, ip, [sp, #32]
 8003f04:	4632      	mov	r2, r6
 8003f06:	463b      	mov	r3, r7
 8003f08:	4658      	mov	r0, fp
 8003f0a:	460d      	mov	r5, r1
 8003f0c:	f7fc f964 	bl	80001d8 <__aeabi_dsub>
 8003f10:	4642      	mov	r2, r8
 8003f12:	464b      	mov	r3, r9
 8003f14:	f7fc f960 	bl	80001d8 <__aeabi_dsub>
 8003f18:	e9dd 2304 	ldrd	r2, r3, [sp, #16]
 8003f1c:	f7fc f95c 	bl	80001d8 <__aeabi_dsub>
 8003f20:	465c      	mov	r4, fp
 8003f22:	4602      	mov	r2, r0
 8003f24:	e036      	b.n	8003f94 <__ieee754_pow+0x79c>
 8003f26:	bf00      	nop
 8003f28:	4a454eef 	.word	0x4a454eef
 8003f2c:	3fca7e28 	.word	0x3fca7e28
 8003f30:	93c9db65 	.word	0x93c9db65
 8003f34:	3fcd864a 	.word	0x3fcd864a
 8003f38:	a91d4101 	.word	0xa91d4101
 8003f3c:	3fd17460 	.word	0x3fd17460
 8003f40:	518f264d 	.word	0x518f264d
 8003f44:	3fd55555 	.word	0x3fd55555
 8003f48:	db6fabff 	.word	0xdb6fabff
 8003f4c:	3fdb6db6 	.word	0x3fdb6db6
 8003f50:	33333303 	.word	0x33333303
 8003f54:	3fe33333 	.word	0x3fe33333
 8003f58:	e0000000 	.word	0xe0000000
 8003f5c:	3feec709 	.word	0x3feec709
 8003f60:	dc3a03fd 	.word	0xdc3a03fd
 8003f64:	3feec709 	.word	0x3feec709
 8003f68:	145b01f5 	.word	0x145b01f5
 8003f6c:	be3e2fe0 	.word	0xbe3e2fe0
 8003f70:	7ff00000 	.word	0x7ff00000
 8003f74:	43400000 	.word	0x43400000
 8003f78:	0003988e 	.word	0x0003988e
 8003f7c:	000bb679 	.word	0x000bb679
 8003f80:	08004508 	.word	0x08004508
 8003f84:	3ff00000 	.word	0x3ff00000
 8003f88:	40080000 	.word	0x40080000
 8003f8c:	080044e8 	.word	0x080044e8
 8003f90:	080044f8 	.word	0x080044f8
 8003f94:	460b      	mov	r3, r1
 8003f96:	e9dd 0106 	ldrd	r0, r1, [sp, #24]
 8003f9a:	e5d7      	b.n	8003b4c <__ieee754_pow+0x354>
 8003f9c:	f04f 0a01 	mov.w	sl, #1
 8003fa0:	e65e      	b.n	8003c60 <__ieee754_pow+0x468>
 8003fa2:	a3b4      	add	r3, pc, #720	@ (adr r3, 8004274 <__ieee754_pow+0xa7c>)
 8003fa4:	e9d3 2300 	ldrd	r2, r3, [r3]
 8003fa8:	4630      	mov	r0, r6
 8003faa:	4639      	mov	r1, r7
 8003fac:	f7fc f916 	bl	80001dc <__adddf3>
 8003fb0:	4642      	mov	r2, r8
 8003fb2:	e9cd 0100 	strd	r0, r1, [sp]
 8003fb6:	464b      	mov	r3, r9
 8003fb8:	4620      	mov	r0, r4
 8003fba:	4629      	mov	r1, r5
 8003fbc:	f7fc f90c 	bl	80001d8 <__aeabi_dsub>
 8003fc0:	4602      	mov	r2, r0
 8003fc2:	460b      	mov	r3, r1
 8003fc4:	e9dd 0100 	ldrd	r0, r1, [sp]
 8003fc8:	f7fc fd4e 	bl	8000a68 <__aeabi_dcmpgt>
 8003fcc:	2800      	cmp	r0, #0
 8003fce:	f47f ae00 	bne.w	8003bd2 <__ieee754_pow+0x3da>
 8003fd2:	ea4f 5a2a 	mov.w	sl, sl, asr #20
 8003fd6:	f44f 1380 	mov.w	r3, #1048576	@ 0x100000
 8003fda:	f2aa 3afe 	subw	sl, sl, #1022	@ 0x3fe
 8003fde:	fa43 fa0a 	asr.w	sl, r3, sl
 8003fe2:	44da      	add	sl, fp
 8003fe4:	f3ca 510a 	ubfx	r1, sl, #20, #11
 8003fe8:	489d      	ldr	r0, [pc, #628]	@ (8004260 <__ieee754_pow+0xa68>)
 8003fea:	f2a1 31ff 	subw	r1, r1, #1023	@ 0x3ff
 8003fee:	4108      	asrs	r0, r1
 8003ff0:	ea00 030a 	and.w	r3, r0, sl
 8003ff4:	f3ca 0a13 	ubfx	sl, sl, #0, #20
 8003ff8:	f1c1 0114 	rsb	r1, r1, #20
 8003ffc:	f44a 1a80 	orr.w	sl, sl, #1048576	@ 0x100000
 8004000:	fa4a fa01 	asr.w	sl, sl, r1
 8004004:	f1bb 0f00 	cmp.w	fp, #0
 8004008:	4640      	mov	r0, r8
 800400a:	4649      	mov	r1, r9
 800400c:	f04f 0200 	mov.w	r2, #0
 8004010:	bfb8      	it	lt
 8004012:	f1ca 0a00 	rsblt	sl, sl, #0
 8004016:	f7fc f8df 	bl	80001d8 <__aeabi_dsub>
 800401a:	4680      	mov	r8, r0
 800401c:	4689      	mov	r9, r1
 800401e:	4632      	mov	r2, r6
 8004020:	463b      	mov	r3, r7
 8004022:	4640      	mov	r0, r8
 8004024:	4649      	mov	r1, r9
 8004026:	f7fc f8d9 	bl	80001dc <__adddf3>
 800402a:	2400      	movs	r4, #0
 800402c:	a37c      	add	r3, pc, #496	@ (adr r3, 8004220 <__ieee754_pow+0xa28>)
 800402e:	e9d3 2300 	ldrd	r2, r3, [r3]
 8004032:	4620      	mov	r0, r4
 8004034:	460d      	mov	r5, r1
 8004036:	f7fc fa87 	bl	8000548 <__aeabi_dmul>
 800403a:	4642      	mov	r2, r8
 800403c:	e9cd 0100 	strd	r0, r1, [sp]
 8004040:	464b      	mov	r3, r9
 8004042:	4620      	mov	r0, r4
 8004044:	4629      	mov	r1, r5
 8004046:	f7fc f8c7 	bl	80001d8 <__aeabi_dsub>
 800404a:	4602      	mov	r2, r0
 800404c:	460b      	mov	r3, r1
 800404e:	4630      	mov	r0, r6
 8004050:	4639      	mov	r1, r7
 8004052:	f7fc f8c1 	bl	80001d8 <__aeabi_dsub>
 8004056:	a374      	add	r3, pc, #464	@ (adr r3, 8004228 <__ieee754_pow+0xa30>)
 8004058:	e9d3 2300 	ldrd	r2, r3, [r3]
 800405c:	f7fc fa74 	bl	8000548 <__aeabi_dmul>
 8004060:	a373      	add	r3, pc, #460	@ (adr r3, 8004230 <__ieee754_pow+0xa38>)
 8004062:	e9d3 2300 	ldrd	r2, r3, [r3]
 8004066:	4680      	mov	r8, r0
 8004068:	4689      	mov	r9, r1
 800406a:	4620      	mov	r0, r4
 800406c:	4629      	mov	r1, r5
 800406e:	f7fc fa6b 	bl	8000548 <__aeabi_dmul>
 8004072:	4602      	mov	r2, r0
 8004074:	460b      	mov	r3, r1
 8004076:	4640      	mov	r0, r8
 8004078:	4649      	mov	r1, r9
 800407a:	f7fc f8af 	bl	80001dc <__adddf3>
 800407e:	4604      	mov	r4, r0
 8004080:	460d      	mov	r5, r1
 8004082:	4602      	mov	r2, r0
 8004084:	460b      	mov	r3, r1
 8004086:	e9dd 0100 	ldrd	r0, r1, [sp]
 800408a:	f7fc f8a7 	bl	80001dc <__adddf3>
 800408e:	e9dd 2300 	ldrd	r2, r3, [sp]
 8004092:	4680      	mov	r8, r0
 8004094:	4689      	mov	r9, r1
 8004096:	f7fc f89f 	bl	80001d8 <__aeabi_dsub>
 800409a:	4602      	mov	r2, r0
 800409c:	460b      	mov	r3, r1
 800409e:	4620      	mov	r0, r4
 80040a0:	4629      	mov	r1, r5
 80040a2:	f7fc f899 	bl	80001d8 <__aeabi_dsub>
 80040a6:	4642      	mov	r2, r8
 80040a8:	4606      	mov	r6, r0
 80040aa:	460f      	mov	r7, r1
 80040ac:	464b      	mov	r3, r9
 80040ae:	4640      	mov	r0, r8
 80040b0:	4649      	mov	r1, r9
 80040b2:	f7fc fa49 	bl	8000548 <__aeabi_dmul>
 80040b6:	a360      	add	r3, pc, #384	@ (adr r3, 8004238 <__ieee754_pow+0xa40>)
 80040b8:	e9d3 2300 	ldrd	r2, r3, [r3]
 80040bc:	4604      	mov	r4, r0
 80040be:	460d      	mov	r5, r1
 80040c0:	f7fc fa42 	bl	8000548 <__aeabi_dmul>
 80040c4:	a35e      	add	r3, pc, #376	@ (adr r3, 8004240 <__ieee754_pow+0xa48>)
 80040c6:	e9d3 2300 	ldrd	r2, r3, [r3]
 80040ca:	f7fc f885 	bl	80001d8 <__aeabi_dsub>
 80040ce:	4622      	mov	r2, r4
 80040d0:	462b      	mov	r3, r5
 80040d2:	f7fc fa39 	bl	8000548 <__aeabi_dmul>
 80040d6:	a35c      	add	r3, pc, #368	@ (adr r3, 8004248 <__ieee754_pow+0xa50>)
 80040d8:	e9d3 2300 	ldrd	r2, r3, [r3]
 80040dc:	f7fc f87e 	bl	80001dc <__adddf3>
 80040e0:	4622      	mov	r2, r4
 80040e2:	462b      	mov	r3, r5
 80040e4:	f7fc fa30 	bl	8000548 <__aeabi_dmul>
 80040e8:	a359      	add	r3, pc, #356	@ (adr r3, 8004250 <__ieee754_pow+0xa58>)
 80040ea:	e9d3 2300 	ldrd	r2, r3, [r3]
 80040ee:	f7fc f873 	bl	80001d8 <__aeabi_dsub>
 80040f2:	4622      	mov	r2, r4
 80040f4:	462b      	mov	r3, r5
 80040f6:	f7fc fa27 	bl	8000548 <__aeabi_dmul>
 80040fa:	a357      	add	r3, pc, #348	@ (adr r3, 8004258 <__ieee754_pow+0xa60>)
 80040fc:	e9d3 2300 	ldrd	r2, r3, [r3]
 8004100:	f7fc f86c 	bl	80001dc <__adddf3>
 8004104:	4622      	mov	r2, r4
 8004106:	462b      	mov	r3, r5
 8004108:	f7fc fa1e 	bl	8000548 <__aeabi_dmul>
 800410c:	4602      	mov	r2, r0
 800410e:	460b      	mov	r3, r1
 8004110:	4640      	mov	r0, r8
 8004112:	4649      	mov	r1, r9
 8004114:	f7fc f860 	bl	80001d8 <__aeabi_dsub>
 8004118:	4604      	mov	r4, r0
 800411a:	460d      	mov	r5, r1
 800411c:	4602      	mov	r2, r0
 800411e:	460b      	mov	r3, r1
 8004120:	4640      	mov	r0, r8
 8004122:	4649      	mov	r1, r9
 8004124:	f7fc fa10 	bl	8000548 <__aeabi_dmul>
 8004128:	2200      	movs	r2, #0
 800412a:	e9cd 0100 	strd	r0, r1, [sp]
 800412e:	f04f 4380 	mov.w	r3, #1073741824	@ 0x40000000
 8004132:	4620      	mov	r0, r4
 8004134:	4629      	mov	r1, r5
 8004136:	f7fc f84f 	bl	80001d8 <__aeabi_dsub>
 800413a:	4602      	mov	r2, r0
 800413c:	460b      	mov	r3, r1
 800413e:	e9dd 0100 	ldrd	r0, r1, [sp]
 8004142:	f7fc fb2b 	bl	800079c <__aeabi_ddiv>
 8004146:	4632      	mov	r2, r6
 8004148:	4604      	mov	r4, r0
 800414a:	460d      	mov	r5, r1
 800414c:	463b      	mov	r3, r7
 800414e:	4640      	mov	r0, r8
 8004150:	4649      	mov	r1, r9
 8004152:	f7fc f9f9 	bl	8000548 <__aeabi_dmul>
 8004156:	4632      	mov	r2, r6
 8004158:	463b      	mov	r3, r7
 800415a:	f7fc f83f 	bl	80001dc <__adddf3>
 800415e:	4602      	mov	r2, r0
 8004160:	460b      	mov	r3, r1
 8004162:	4620      	mov	r0, r4
 8004164:	4629      	mov	r1, r5
 8004166:	f7fc f837 	bl	80001d8 <__aeabi_dsub>
 800416a:	4642      	mov	r2, r8
 800416c:	464b      	mov	r3, r9
 800416e:	f7fc f833 	bl	80001d8 <__aeabi_dsub>
 8004172:	460b      	mov	r3, r1
 8004174:	4602      	mov	r2, r0
 8004176:	493b      	ldr	r1, [pc, #236]	@ (8004264 <__ieee754_pow+0xa6c>)
 8004178:	2000      	movs	r0, #0
 800417a:	f7fc f82d 	bl	80001d8 <__aeabi_dsub>
 800417e:	ec41 0b10 	vmov	d0, r0, r1
 8004182:	ee10 3a90 	vmov	r3, s1
 8004186:	eb03 530a 	add.w	r3, r3, sl, lsl #20
 800418a:	f5b3 1f80 	cmp.w	r3, #1048576	@ 0x100000
 800418e:	da30      	bge.n	80041f2 <__ieee754_pow+0x9fa>
 8004190:	4650      	mov	r0, sl
 8004192:	f000 f87d 	bl	8004290 <scalbn>
 8004196:	ec51 0b10 	vmov	r0, r1, d0
 800419a:	e9dd 2302 	ldrd	r2, r3, [sp, #8]
 800419e:	f7ff bbd2 	b.w	8003946 <__ieee754_pow+0x14e>
 80041a2:	4c31      	ldr	r4, [pc, #196]	@ (8004268 <__ieee754_pow+0xa70>)
 80041a4:	f021 4300 	bic.w	r3, r1, #2147483648	@ 0x80000000
 80041a8:	42a3      	cmp	r3, r4
 80041aa:	d91a      	bls.n	80041e2 <__ieee754_pow+0x9ea>
 80041ac:	4b2f      	ldr	r3, [pc, #188]	@ (800426c <__ieee754_pow+0xa74>)
 80041ae:	440b      	add	r3, r1
 80041b0:	4303      	orrs	r3, r0
 80041b2:	d009      	beq.n	80041c8 <__ieee754_pow+0x9d0>
 80041b4:	e9dd 0102 	ldrd	r0, r1, [sp, #8]
 80041b8:	2200      	movs	r2, #0
 80041ba:	2300      	movs	r3, #0
 80041bc:	f7fc fc36 	bl	8000a2c <__aeabi_dcmplt>
 80041c0:	3800      	subs	r0, #0
 80041c2:	bf18      	it	ne
 80041c4:	2001      	movne	r0, #1
 80041c6:	e42b      	b.n	8003a20 <__ieee754_pow+0x228>
 80041c8:	4642      	mov	r2, r8
 80041ca:	464b      	mov	r3, r9
 80041cc:	f7fc f804 	bl	80001d8 <__aeabi_dsub>
 80041d0:	4632      	mov	r2, r6
 80041d2:	463b      	mov	r3, r7
 80041d4:	f7fc fc3e 	bl	8000a54 <__aeabi_dcmpge>
 80041d8:	2800      	cmp	r0, #0
 80041da:	d1eb      	bne.n	80041b4 <__ieee754_pow+0x9bc>
 80041dc:	f8df a09c 	ldr.w	sl, [pc, #156]	@ 800427c <__ieee754_pow+0xa84>
 80041e0:	e6f7      	b.n	8003fd2 <__ieee754_pow+0x7da>
 80041e2:	469a      	mov	sl, r3
 80041e4:	4b22      	ldr	r3, [pc, #136]	@ (8004270 <__ieee754_pow+0xa78>)
 80041e6:	459a      	cmp	sl, r3
 80041e8:	f63f aef3 	bhi.w	8003fd2 <__ieee754_pow+0x7da>
 80041ec:	f8dd a010 	ldr.w	sl, [sp, #16]
 80041f0:	e715      	b.n	800401e <__ieee754_pow+0x826>
 80041f2:	ec51 0b10 	vmov	r0, r1, d0
 80041f6:	4619      	mov	r1, r3
 80041f8:	e7cf      	b.n	800419a <__ieee754_pow+0x9a2>
 80041fa:	491a      	ldr	r1, [pc, #104]	@ (8004264 <__ieee754_pow+0xa6c>)
 80041fc:	2000      	movs	r0, #0
 80041fe:	f7ff bb18 	b.w	8003832 <__ieee754_pow+0x3a>
 8004202:	2000      	movs	r0, #0
 8004204:	2100      	movs	r1, #0
 8004206:	f7ff bb14 	b.w	8003832 <__ieee754_pow+0x3a>
 800420a:	4630      	mov	r0, r6
 800420c:	4639      	mov	r1, r7
 800420e:	f7ff bb10 	b.w	8003832 <__ieee754_pow+0x3a>
 8004212:	460c      	mov	r4, r1
 8004214:	f7ff bb5e 	b.w	80038d4 <__ieee754_pow+0xdc>
 8004218:	2400      	movs	r4, #0
 800421a:	f7ff bb49 	b.w	80038b0 <__ieee754_pow+0xb8>
 800421e:	bf00      	nop
 8004220:	00000000 	.word	0x00000000
 8004224:	3fe62e43 	.word	0x3fe62e43
 8004228:	fefa39ef 	.word	0xfefa39ef
 800422c:	3fe62e42 	.word	0x3fe62e42
 8004230:	0ca86c39 	.word	0x0ca86c39
 8004234:	be205c61 	.word	0xbe205c61
 8004238:	72bea4d0 	.word	0x72bea4d0
 800423c:	3e663769 	.word	0x3e663769
 8004240:	c5d26bf1 	.word	0xc5d26bf1
 8004244:	3ebbbd41 	.word	0x3ebbbd41
 8004248:	af25de2c 	.word	0xaf25de2c
 800424c:	3f11566a 	.word	0x3f11566a
 8004250:	16bebd93 	.word	0x16bebd93
 8004254:	3f66c16c 	.word	0x3f66c16c
 8004258:	5555553e 	.word	0x5555553e
 800425c:	3fc55555 	.word	0x3fc55555
 8004260:	fff00000 	.word	0xfff00000
 8004264:	3ff00000 	.word	0x3ff00000
 8004268:	4090cbff 	.word	0x4090cbff
 800426c:	3f6f3400 	.word	0x3f6f3400
 8004270:	3fe00000 	.word	0x3fe00000
 8004274:	652b82fe 	.word	0x652b82fe
 8004278:	3c971547 	.word	0x3c971547
 800427c:	4090cc00 	.word	0x4090cc00

08004280 <fabs>:
 8004280:	ec51 0b10 	vmov	r0, r1, d0
 8004284:	4602      	mov	r2, r0
 8004286:	f021 4300 	bic.w	r3, r1, #2147483648	@ 0x80000000
 800428a:	ec43 2b10 	vmov	d0, r2, r3
 800428e:	4770      	bx	lr

08004290 <scalbn>:
 8004290:	b570      	push	{r4, r5, r6, lr}
 8004292:	ec55 4b10 	vmov	r4, r5, d0
 8004296:	f3c5 510a 	ubfx	r1, r5, #20, #11
 800429a:	4606      	mov	r6, r0
 800429c:	462b      	mov	r3, r5
 800429e:	b991      	cbnz	r1, 80042c6 <scalbn+0x36>
 80042a0:	f025 4300 	bic.w	r3, r5, #2147483648	@ 0x80000000
 80042a4:	4323      	orrs	r3, r4
 80042a6:	d03d      	beq.n	8004324 <scalbn+0x94>
 80042a8:	4b35      	ldr	r3, [pc, #212]	@ (8004380 <scalbn+0xf0>)
 80042aa:	4620      	mov	r0, r4
 80042ac:	4629      	mov	r1, r5
 80042ae:	2200      	movs	r2, #0
 80042b0:	f7fc f94a 	bl	8000548 <__aeabi_dmul>
 80042b4:	4b33      	ldr	r3, [pc, #204]	@ (8004384 <scalbn+0xf4>)
 80042b6:	429e      	cmp	r6, r3
 80042b8:	4604      	mov	r4, r0
 80042ba:	460d      	mov	r5, r1
 80042bc:	da0f      	bge.n	80042de <scalbn+0x4e>
 80042be:	a328      	add	r3, pc, #160	@ (adr r3, 8004360 <scalbn+0xd0>)
 80042c0:	e9d3 2300 	ldrd	r2, r3, [r3]
 80042c4:	e01e      	b.n	8004304 <scalbn+0x74>
 80042c6:	f240 72ff 	movw	r2, #2047	@ 0x7ff
 80042ca:	4291      	cmp	r1, r2
 80042cc:	d10b      	bne.n	80042e6 <scalbn+0x56>
 80042ce:	4622      	mov	r2, r4
 80042d0:	4620      	mov	r0, r4
 80042d2:	4629      	mov	r1, r5
 80042d4:	f7fb ff82 	bl	80001dc <__adddf3>
 80042d8:	4604      	mov	r4, r0
 80042da:	460d      	mov	r5, r1
 80042dc:	e022      	b.n	8004324 <scalbn+0x94>
 80042de:	460b      	mov	r3, r1
 80042e0:	f3c1 510a 	ubfx	r1, r1, #20, #11
 80042e4:	3936      	subs	r1, #54	@ 0x36
 80042e6:	f24c 3250 	movw	r2, #50000	@ 0xc350
 80042ea:	4296      	cmp	r6, r2
 80042ec:	dd0d      	ble.n	800430a <scalbn+0x7a>
 80042ee:	2d00      	cmp	r5, #0
 80042f0:	a11d      	add	r1, pc, #116	@ (adr r1, 8004368 <scalbn+0xd8>)
 80042f2:	e9d1 0100 	ldrd	r0, r1, [r1]
 80042f6:	da02      	bge.n	80042fe <scalbn+0x6e>
 80042f8:	a11d      	add	r1, pc, #116	@ (adr r1, 8004370 <scalbn+0xe0>)
 80042fa:	e9d1 0100 	ldrd	r0, r1, [r1]
 80042fe:	a31a      	add	r3, pc, #104	@ (adr r3, 8004368 <scalbn+0xd8>)
 8004300:	e9d3 2300 	ldrd	r2, r3, [r3]
 8004304:	f7fc f920 	bl	8000548 <__aeabi_dmul>
 8004308:	e7e6      	b.n	80042d8 <scalbn+0x48>
 800430a:	1872      	adds	r2, r6, r1
 800430c:	f240 71fe 	movw	r1, #2046	@ 0x7fe
 8004310:	428a      	cmp	r2, r1
 8004312:	dcec      	bgt.n	80042ee <scalbn+0x5e>
 8004314:	2a00      	cmp	r2, #0
 8004316:	dd08      	ble.n	800432a <scalbn+0x9a>
 8004318:	f023 43ff 	bic.w	r3, r3, #2139095040	@ 0x7f800000
 800431c:	f423 03e0 	bic.w	r3, r3, #7340032	@ 0x700000
 8004320:	ea43 5502 	orr.w	r5, r3, r2, lsl #20
 8004324:	ec45 4b10 	vmov	d0, r4, r5
 8004328:	bd70      	pop	{r4, r5, r6, pc}
 800432a:	f112 0f35 	cmn.w	r2, #53	@ 0x35
 800432e:	da08      	bge.n	8004342 <scalbn+0xb2>
 8004330:	2d00      	cmp	r5, #0
 8004332:	a10b      	add	r1, pc, #44	@ (adr r1, 8004360 <scalbn+0xd0>)
 8004334:	e9d1 0100 	ldrd	r0, r1, [r1]
 8004338:	dac1      	bge.n	80042be <scalbn+0x2e>
 800433a:	a10f      	add	r1, pc, #60	@ (adr r1, 8004378 <scalbn+0xe8>)
 800433c:	e9d1 0100 	ldrd	r0, r1, [r1]
 8004340:	e7bd      	b.n	80042be <scalbn+0x2e>
 8004342:	f023 43ff 	bic.w	r3, r3, #2139095040	@ 0x7f800000
 8004346:	3236      	adds	r2, #54	@ 0x36
 8004348:	f423 03e0 	bic.w	r3, r3, #7340032	@ 0x700000
 800434c:	ea43 5502 	orr.w	r5, r3, r2, lsl #20
 8004350:	4620      	mov	r0, r4
 8004352:	4b0d      	ldr	r3, [pc, #52]	@ (8004388 <scalbn+0xf8>)
 8004354:	4629      	mov	r1, r5
 8004356:	2200      	movs	r2, #0
 8004358:	e7d4      	b.n	8004304 <scalbn+0x74>
 800435a:	bf00      	nop
 800435c:	f3af 8000 	nop.w
 8004360:	c2f8f359 	.word	0xc2f8f359
 8004364:	01a56e1f 	.word	0x01a56e1f
 8004368:	8800759c 	.word	0x8800759c
 800436c:	7e37e43c 	.word	0x7e37e43c
 8004370:	8800759c 	.word	0x8800759c
 8004374:	fe37e43c 	.word	0xfe37e43c
 8004378:	c2f8f359 	.word	0xc2f8f359
 800437c:	81a56e1f 	.word	0x81a56e1f
 8004380:	43500000 	.word	0x43500000
 8004384:	ffff3cb0 	.word	0xffff3cb0
 8004388:	3c900000 	.word	0x3c900000

0800438c <with_errno>:
 800438c:	b510      	push	{r4, lr}
 800438e:	ed2d 8b02 	vpush	{d8}
 8004392:	eeb0 8a40 	vmov.f32	s16, s0
 8004396:	eef0 8a60 	vmov.f32	s17, s1
 800439a:	4604      	mov	r4, r0
 800439c:	f000 f83c 	bl	8004418 <__errno>
 80043a0:	eeb0 0a48 	vmov.f32	s0, s16
 80043a4:	eef0 0a68 	vmov.f32	s1, s17
 80043a8:	ecbd 8b02 	vpop	{d8}
 80043ac:	6004      	str	r4, [r0, #0]
 80043ae:	bd10      	pop	{r4, pc}

080043b0 <xflow>:
 80043b0:	4603      	mov	r3, r0
 80043b2:	b507      	push	{r0, r1, r2, lr}
 80043b4:	ec51 0b10 	vmov	r0, r1, d0
 80043b8:	b183      	cbz	r3, 80043dc <xflow+0x2c>
 80043ba:	4602      	mov	r2, r0
 80043bc:	f101 4300 	add.w	r3, r1, #2147483648	@ 0x80000000
 80043c0:	e9cd 2300 	strd	r2, r3, [sp]
 80043c4:	e9dd 2300 	ldrd	r2, r3, [sp]
 80043c8:	f7fc f8be 	bl	8000548 <__aeabi_dmul>
 80043cc:	ec41 0b10 	vmov	d0, r0, r1
 80043d0:	2022      	movs	r0, #34	@ 0x22
 80043d2:	b003      	add	sp, #12
 80043d4:	f85d eb04 	ldr.w	lr, [sp], #4
 80043d8:	f7ff bfd8 	b.w	800438c <with_errno>
 80043dc:	4602      	mov	r2, r0
 80043de:	460b      	mov	r3, r1
 80043e0:	e7ee      	b.n	80043c0 <xflow+0x10>
 80043e2:	0000      	movs	r0, r0
 80043e4:	0000      	movs	r0, r0
	...

080043e8 <__math_uflow>:
 80043e8:	ed9f 0b01 	vldr	d0, [pc, #4]	@ 80043f0 <__math_uflow+0x8>
 80043ec:	f7ff bfe0 	b.w	80043b0 <xflow>
 80043f0:	00000000 	.word	0x00000000
 80043f4:	10000000 	.word	0x10000000

080043f8 <__math_oflow>:
 80043f8:	ed9f 0b01 	vldr	d0, [pc, #4]	@ 8004400 <__math_oflow+0x8>
 80043fc:	f7ff bfd8 	b.w	80043b0 <xflow>
 8004400:	00000000 	.word	0x00000000
 8004404:	70000000 	.word	0x70000000

08004408 <memset>:
 8004408:	4402      	add	r2, r0
 800440a:	4603      	mov	r3, r0
 800440c:	4293      	cmp	r3, r2
 800440e:	d100      	bne.n	8004412 <memset+0xa>
 8004410:	4770      	bx	lr
 8004412:	f803 1b01 	strb.w	r1, [r3], #1
 8004416:	e7f9      	b.n	800440c <memset+0x4>

08004418 <__errno>:
 8004418:	4b01      	ldr	r3, [pc, #4]	@ (8004420 <__errno+0x8>)
 800441a:	6818      	ldr	r0, [r3, #0]
 800441c:	4770      	bx	lr
 800441e:	bf00      	nop
 8004420:	2000c8c0 	.word	0x2000c8c0

08004424 <__libc_init_array>:
 8004424:	b570      	push	{r4, r5, r6, lr}
 8004426:	4d0d      	ldr	r5, [pc, #52]	@ (800445c <__libc_init_array+0x38>)
 8004428:	4c0d      	ldr	r4, [pc, #52]	@ (8004460 <__libc_init_array+0x3c>)
 800442a:	1b64      	subs	r4, r4, r5
 800442c:	10a4      	asrs	r4, r4, #2
 800442e:	2600      	movs	r6, #0
 8004430:	42a6      	cmp	r6, r4
 8004432:	d109      	bne.n	8004448 <__libc_init_array+0x24>
 8004434:	4d0b      	ldr	r5, [pc, #44]	@ (8004464 <__libc_init_array+0x40>)
 8004436:	4c0c      	ldr	r4, [pc, #48]	@ (8004468 <__libc_init_array+0x44>)
 8004438:	f000 f818 	bl	800446c <_init>
 800443c:	1b64      	subs	r4, r4, r5
 800443e:	10a4      	asrs	r4, r4, #2
 8004440:	2600      	movs	r6, #0
 8004442:	42a6      	cmp	r6, r4
 8004444:	d105      	bne.n	8004452 <__libc_init_array+0x2e>
 8004446:	bd70      	pop	{r4, r5, r6, pc}
 8004448:	f855 3b04 	ldr.w	r3, [r5], #4
 800444c:	4798      	blx	r3
 800444e:	3601      	adds	r6, #1
 8004450:	e7ee      	b.n	8004430 <__libc_init_array+0xc>
 8004452:	f855 3b04 	ldr.w	r3, [r5], #4
 8004456:	4798      	blx	r3
 8004458:	3601      	adds	r6, #1
 800445a:	e7f2      	b.n	8004442 <__libc_init_array+0x1e>
 800445c:	08004518 	.word	0x08004518
 8004460:	08004518 	.word	0x08004518
 8004464:	08004518 	.word	0x08004518
 8004468:	0800451c 	.word	0x0800451c

0800446c <_init>:
 800446c:	b5f8      	push	{r3, r4, r5, r6, r7, lr}
 800446e:	bf00      	nop
 8004470:	bcf8      	pop	{r3, r4, r5, r6, r7}
 8004472:	bc08      	pop	{r3}
 8004474:	469e      	mov	lr, r3
 8004476:	4770      	bx	lr

08004478 <_fini>:
 8004478:	b5f8      	push	{r3, r4, r5, r6, r7, lr}
 800447a:	bf00      	nop
 800447c:	bcf8      	pop	{r3, r4, r5, r6, r7}
 800447e:	bc08      	pop	{r3}
 8004480:	469e      	mov	lr, r3
 8004482:	4770      	bx	lr
